
cppprogram:     file format elf64-x86-64


Disassembly of section .init:

0000000000002000 <_init>:
    2000:	f3 0f 1e fa          	endbr64
    2004:	48 83 ec 08          	sub    $0x8,%rsp
    2008:	48 8b 05 d9 3f 00 00 	mov    0x3fd9(%rip),%rax        # 5fe8 <__gmon_start__@Base>
    200f:	48 85 c0             	test   %rax,%rax
    2012:	74 02                	je     2016 <_init+0x16>
    2014:	ff d0                	call   *%rax
    2016:	48 83 c4 08          	add    $0x8,%rsp
    201a:	c3                   	ret

Disassembly of section .plt:

0000000000002020 <.plt>:
    2020:	ff 35 3a 3e 00 00    	push   0x3e3a(%rip)        # 5e60 <_GLOBAL_OFFSET_TABLE_+0x8>
    2026:	ff 25 3c 3e 00 00    	jmp    *0x3e3c(%rip)        # 5e68 <_GLOBAL_OFFSET_TABLE_+0x10>
    202c:	0f 1f 40 00          	nopl   0x0(%rax)
    2030:	f3 0f 1e fa          	endbr64
    2034:	68 00 00 00 00       	push   $0x0
    2039:	e9 e2 ff ff ff       	jmp    2020 <_init+0x20>
    203e:	66 90                	xchg   %ax,%ax
    2040:	f3 0f 1e fa          	endbr64
    2044:	68 01 00 00 00       	push   $0x1
    2049:	e9 d2 ff ff ff       	jmp    2020 <_init+0x20>
    204e:	66 90                	xchg   %ax,%ax
    2050:	f3 0f 1e fa          	endbr64
    2054:	68 02 00 00 00       	push   $0x2
    2059:	e9 c2 ff ff ff       	jmp    2020 <_init+0x20>
    205e:	66 90                	xchg   %ax,%ax
    2060:	f3 0f 1e fa          	endbr64
    2064:	68 03 00 00 00       	push   $0x3
    2069:	e9 b2 ff ff ff       	jmp    2020 <_init+0x20>
    206e:	66 90                	xchg   %ax,%ax
    2070:	f3 0f 1e fa          	endbr64
    2074:	68 04 00 00 00       	push   $0x4
    2079:	e9 a2 ff ff ff       	jmp    2020 <_init+0x20>
    207e:	66 90                	xchg   %ax,%ax
    2080:	f3 0f 1e fa          	endbr64
    2084:	68 05 00 00 00       	push   $0x5
    2089:	e9 92 ff ff ff       	jmp    2020 <_init+0x20>
    208e:	66 90                	xchg   %ax,%ax
    2090:	f3 0f 1e fa          	endbr64
    2094:	68 06 00 00 00       	push   $0x6
    2099:	e9 82 ff ff ff       	jmp    2020 <_init+0x20>
    209e:	66 90                	xchg   %ax,%ax
    20a0:	f3 0f 1e fa          	endbr64
    20a4:	68 07 00 00 00       	push   $0x7
    20a9:	e9 72 ff ff ff       	jmp    2020 <_init+0x20>
    20ae:	66 90                	xchg   %ax,%ax
    20b0:	f3 0f 1e fa          	endbr64
    20b4:	68 08 00 00 00       	push   $0x8
    20b9:	e9 62 ff ff ff       	jmp    2020 <_init+0x20>
    20be:	66 90                	xchg   %ax,%ax
    20c0:	f3 0f 1e fa          	endbr64
    20c4:	68 09 00 00 00       	push   $0x9
    20c9:	e9 52 ff ff ff       	jmp    2020 <_init+0x20>
    20ce:	66 90                	xchg   %ax,%ax
    20d0:	f3 0f 1e fa          	endbr64
    20d4:	68 0a 00 00 00       	push   $0xa
    20d9:	e9 42 ff ff ff       	jmp    2020 <_init+0x20>
    20de:	66 90                	xchg   %ax,%ax
    20e0:	f3 0f 1e fa          	endbr64
    20e4:	68 0b 00 00 00       	push   $0xb
    20e9:	e9 32 ff ff ff       	jmp    2020 <_init+0x20>
    20ee:	66 90                	xchg   %ax,%ax
    20f0:	f3 0f 1e fa          	endbr64
    20f4:	68 0c 00 00 00       	push   $0xc
    20f9:	e9 22 ff ff ff       	jmp    2020 <_init+0x20>
    20fe:	66 90                	xchg   %ax,%ax
    2100:	f3 0f 1e fa          	endbr64
    2104:	68 0d 00 00 00       	push   $0xd
    2109:	e9 12 ff ff ff       	jmp    2020 <_init+0x20>
    210e:	66 90                	xchg   %ax,%ax
    2110:	f3 0f 1e fa          	endbr64
    2114:	68 0e 00 00 00       	push   $0xe
    2119:	e9 02 ff ff ff       	jmp    2020 <_init+0x20>
    211e:	66 90                	xchg   %ax,%ax
    2120:	f3 0f 1e fa          	endbr64
    2124:	68 0f 00 00 00       	push   $0xf
    2129:	e9 f2 fe ff ff       	jmp    2020 <_init+0x20>
    212e:	66 90                	xchg   %ax,%ax
    2130:	f3 0f 1e fa          	endbr64
    2134:	68 10 00 00 00       	push   $0x10
    2139:	e9 e2 fe ff ff       	jmp    2020 <_init+0x20>
    213e:	66 90                	xchg   %ax,%ax
    2140:	f3 0f 1e fa          	endbr64
    2144:	68 11 00 00 00       	push   $0x11
    2149:	e9 d2 fe ff ff       	jmp    2020 <_init+0x20>
    214e:	66 90                	xchg   %ax,%ax
    2150:	f3 0f 1e fa          	endbr64
    2154:	68 12 00 00 00       	push   $0x12
    2159:	e9 c2 fe ff ff       	jmp    2020 <_init+0x20>
    215e:	66 90                	xchg   %ax,%ax
    2160:	f3 0f 1e fa          	endbr64
    2164:	68 13 00 00 00       	push   $0x13
    2169:	e9 b2 fe ff ff       	jmp    2020 <_init+0x20>
    216e:	66 90                	xchg   %ax,%ax
    2170:	f3 0f 1e fa          	endbr64
    2174:	68 14 00 00 00       	push   $0x14
    2179:	e9 a2 fe ff ff       	jmp    2020 <_init+0x20>
    217e:	66 90                	xchg   %ax,%ax
    2180:	f3 0f 1e fa          	endbr64
    2184:	68 15 00 00 00       	push   $0x15
    2189:	e9 92 fe ff ff       	jmp    2020 <_init+0x20>
    218e:	66 90                	xchg   %ax,%ax
    2190:	f3 0f 1e fa          	endbr64
    2194:	68 16 00 00 00       	push   $0x16
    2199:	e9 82 fe ff ff       	jmp    2020 <_init+0x20>
    219e:	66 90                	xchg   %ax,%ax
    21a0:	f3 0f 1e fa          	endbr64
    21a4:	68 17 00 00 00       	push   $0x17
    21a9:	e9 72 fe ff ff       	jmp    2020 <_init+0x20>
    21ae:	66 90                	xchg   %ax,%ax
    21b0:	f3 0f 1e fa          	endbr64
    21b4:	68 18 00 00 00       	push   $0x18
    21b9:	e9 62 fe ff ff       	jmp    2020 <_init+0x20>
    21be:	66 90                	xchg   %ax,%ax
    21c0:	f3 0f 1e fa          	endbr64
    21c4:	68 19 00 00 00       	push   $0x19
    21c9:	e9 52 fe ff ff       	jmp    2020 <_init+0x20>
    21ce:	66 90                	xchg   %ax,%ax
    21d0:	f3 0f 1e fa          	endbr64
    21d4:	68 1a 00 00 00       	push   $0x1a
    21d9:	e9 42 fe ff ff       	jmp    2020 <_init+0x20>
    21de:	66 90                	xchg   %ax,%ax
    21e0:	f3 0f 1e fa          	endbr64
    21e4:	68 1b 00 00 00       	push   $0x1b
    21e9:	e9 32 fe ff ff       	jmp    2020 <_init+0x20>
    21ee:	66 90                	xchg   %ax,%ax
    21f0:	f3 0f 1e fa          	endbr64
    21f4:	68 1c 00 00 00       	push   $0x1c
    21f9:	e9 22 fe ff ff       	jmp    2020 <_init+0x20>
    21fe:	66 90                	xchg   %ax,%ax
    2200:	f3 0f 1e fa          	endbr64
    2204:	68 1d 00 00 00       	push   $0x1d
    2209:	e9 12 fe ff ff       	jmp    2020 <_init+0x20>
    220e:	66 90                	xchg   %ax,%ax
    2210:	f3 0f 1e fa          	endbr64
    2214:	68 1e 00 00 00       	push   $0x1e
    2219:	e9 02 fe ff ff       	jmp    2020 <_init+0x20>
    221e:	66 90                	xchg   %ax,%ax
    2220:	f3 0f 1e fa          	endbr64
    2224:	68 1f 00 00 00       	push   $0x1f
    2229:	e9 f2 fd ff ff       	jmp    2020 <_init+0x20>
    222e:	66 90                	xchg   %ax,%ax
    2230:	f3 0f 1e fa          	endbr64
    2234:	68 20 00 00 00       	push   $0x20
    2239:	e9 e2 fd ff ff       	jmp    2020 <_init+0x20>
    223e:	66 90                	xchg   %ax,%ax
    2240:	f3 0f 1e fa          	endbr64
    2244:	68 21 00 00 00       	push   $0x21
    2249:	e9 d2 fd ff ff       	jmp    2020 <_init+0x20>
    224e:	66 90                	xchg   %ax,%ax
    2250:	f3 0f 1e fa          	endbr64
    2254:	68 22 00 00 00       	push   $0x22
    2259:	e9 c2 fd ff ff       	jmp    2020 <_init+0x20>
    225e:	66 90                	xchg   %ax,%ax
    2260:	f3 0f 1e fa          	endbr64
    2264:	68 23 00 00 00       	push   $0x23
    2269:	e9 b2 fd ff ff       	jmp    2020 <_init+0x20>
    226e:	66 90                	xchg   %ax,%ax
    2270:	f3 0f 1e fa          	endbr64
    2274:	68 24 00 00 00       	push   $0x24
    2279:	e9 a2 fd ff ff       	jmp    2020 <_init+0x20>
    227e:	66 90                	xchg   %ax,%ax
    2280:	f3 0f 1e fa          	endbr64
    2284:	68 25 00 00 00       	push   $0x25
    2289:	e9 92 fd ff ff       	jmp    2020 <_init+0x20>
    228e:	66 90                	xchg   %ax,%ax
    2290:	f3 0f 1e fa          	endbr64
    2294:	68 26 00 00 00       	push   $0x26
    2299:	e9 82 fd ff ff       	jmp    2020 <_init+0x20>
    229e:	66 90                	xchg   %ax,%ax
    22a0:	f3 0f 1e fa          	endbr64
    22a4:	68 27 00 00 00       	push   $0x27
    22a9:	e9 72 fd ff ff       	jmp    2020 <_init+0x20>
    22ae:	66 90                	xchg   %ax,%ax
    22b0:	f3 0f 1e fa          	endbr64
    22b4:	68 28 00 00 00       	push   $0x28
    22b9:	e9 62 fd ff ff       	jmp    2020 <_init+0x20>
    22be:	66 90                	xchg   %ax,%ax
    22c0:	f3 0f 1e fa          	endbr64
    22c4:	68 29 00 00 00       	push   $0x29
    22c9:	e9 52 fd ff ff       	jmp    2020 <_init+0x20>
    22ce:	66 90                	xchg   %ax,%ax
    22d0:	f3 0f 1e fa          	endbr64
    22d4:	68 2a 00 00 00       	push   $0x2a
    22d9:	e9 42 fd ff ff       	jmp    2020 <_init+0x20>
    22de:	66 90                	xchg   %ax,%ax

Disassembly of section .plt.got:

00000000000022e0 <__cxa_finalize@plt>:
    22e0:	f3 0f 1e fa          	endbr64
    22e4:	ff 25 de 3c 00 00    	jmp    *0x3cde(%rip)        # 5fc8 <__cxa_finalize@GLIBC_2.2.5>
    22ea:	66 0f 1f 44 00 00    	nopw   0x0(%rax,%rax,1)

Disassembly of section .plt.sec:

00000000000022f0 <_Znam@plt>:
    22f0:	f3 0f 1e fa          	endbr64
    22f4:	ff 25 76 3b 00 00    	jmp    *0x3b76(%rip)        # 5e70 <_Znam@GLIBCXX_3.4>
    22fa:	66 0f 1f 44 00 00    	nopw   0x0(%rax,%rax,1)

0000000000002300 <__errno_location@plt>:
    2300:	f3 0f 1e fa          	endbr64
    2304:	ff 25 6e 3b 00 00    	jmp    *0x3b6e(%rip)        # 5e78 <__errno_location@GLIBC_2.2.5>
    230a:	66 0f 1f 44 00 00    	nopw   0x0(%rax,%rax,1)

0000000000002310 <_ZNSt6chrono3_V212system_clock3nowEv@plt>:
    2310:	f3 0f 1e fa          	endbr64
    2314:	ff 25 66 3b 00 00    	jmp    *0x3b66(%rip)        # 5e80 <_ZNSt6chrono3_V212system_clock3nowEv@GLIBCXX_3.4.19>
    231a:	66 0f 1f 44 00 00    	nopw   0x0(%rax,%rax,1)

0000000000002320 <_ZSt7getlineIcSt11char_traitsIcESaIcEERSt13basic_istreamIT_T0_ES7_RNSt7__cxx1112basic_stringIS4_S5_T1_EE@plt>:
    2320:	f3 0f 1e fa          	endbr64
    2324:	ff 25 5e 3b 00 00    	jmp    *0x3b5e(%rip)        # 5e88 <_ZSt7getlineIcSt11char_traitsIcESaIcEERSt13basic_istreamIT_T0_ES7_RNSt7__cxx1112basic_stringIS4_S5_T1_EE@GLIBCXX_3.4.21>
    232a:	66 0f 1f 44 00 00    	nopw   0x0(%rax,%rax,1)

0000000000002330 <_ZNSt14basic_ifstreamIcSt11char_traitsIcEE5closeEv@plt>:
    2330:	f3 0f 1e fa          	endbr64
    2334:	ff 25 56 3b 00 00    	jmp    *0x3b56(%rip)        # 5e90 <_ZNSt14basic_ifstreamIcSt11char_traitsIcEE5closeEv@GLIBCXX_3.4>
    233a:	66 0f 1f 44 00 00    	nopw   0x0(%rax,%rax,1)

0000000000002340 <_ZNSolsEm@plt>:
    2340:	f3 0f 1e fa          	endbr64
    2344:	ff 25 4e 3b 00 00    	jmp    *0x3b4e(%rip)        # 5e98 <_ZNSolsEm@GLIBCXX_3.4>
    234a:	66 0f 1f 44 00 00    	nopw   0x0(%rax,%rax,1)

0000000000002350 <_ZNSt14basic_ifstreamIcSt11char_traitsIcEED1Ev@plt>:
    2350:	f3 0f 1e fa          	endbr64
    2354:	ff 25 46 3b 00 00    	jmp    *0x3b46(%rip)        # 5ea0 <_ZNSt14basic_ifstreamIcSt11char_traitsIcEED1Ev@GLIBCXX_3.4>
    235a:	66 0f 1f 44 00 00    	nopw   0x0(%rax,%rax,1)

0000000000002360 <_ZNSolsEPFRSt8ios_baseS0_E@plt>:
    2360:	f3 0f 1e fa          	endbr64
    2364:	ff 25 3e 3b 00 00    	jmp    *0x3b3e(%rip)        # 5ea8 <_ZNSolsEPFRSt8ios_baseS0_E@GLIBCXX_3.4>
    236a:	66 0f 1f 44 00 00    	nopw   0x0(%rax,%rax,1)

0000000000002370 <_ZNKSt7__cxx1112basic_stringIcSt11char_traitsIcESaIcEE5c_strEv@plt>:
    2370:	f3 0f 1e fa          	endbr64
    2374:	ff 25 36 3b 00 00    	jmp    *0x3b36(%rip)        # 5eb0 <_ZNKSt7__cxx1112basic_stringIcSt11char_traitsIcESaIcEE5c_strEv@GLIBCXX_3.4.21>
    237a:	66 0f 1f 44 00 00    	nopw   0x0(%rax,%rax,1)

0000000000002380 <strlen@plt>:
    2380:	f3 0f 1e fa          	endbr64
    2384:	ff 25 2e 3b 00 00    	jmp    *0x3b2e(%rip)        # 5eb8 <strlen@GLIBC_2.2.5>
    238a:	66 0f 1f 44 00 00    	nopw   0x0(%rax,%rax,1)

0000000000002390 <memcmp@plt>:
    2390:	f3 0f 1e fa          	endbr64
    2394:	ff 25 26 3b 00 00    	jmp    *0x3b26(%rip)        # 5ec0 <memcmp@GLIBC_2.2.5>
    239a:	66 0f 1f 44 00 00    	nopw   0x0(%rax,%rax,1)

00000000000023a0 <_ZSt24__throw_invalid_argumentPKc@plt>:
    23a0:	f3 0f 1e fa          	endbr64
    23a4:	ff 25 1e 3b 00 00    	jmp    *0x3b1e(%rip)        # 5ec8 <_ZSt24__throw_invalid_argumentPKc@GLIBCXX_3.4>
    23aa:	66 0f 1f 44 00 00    	nopw   0x0(%rax,%rax,1)

00000000000023b0 <_ZNSt7__cxx1112basic_stringIcSt11char_traitsIcESaIcEED1Ev@plt>:
    23b0:	f3 0f 1e fa          	endbr64
    23b4:	ff 25 16 3b 00 00    	jmp    *0x3b16(%rip)        # 5ed0 <_ZNSt7__cxx1112basic_stringIcSt11char_traitsIcESaIcEED1Ev@GLIBCXX_3.4.21>
    23ba:	66 0f 1f 44 00 00    	nopw   0x0(%rax,%rax,1)

00000000000023c0 <_ZNSt7__cxx1112basic_stringIcSt11char_traitsIcESaIcEE13_M_set_lengthEm@plt>:
    23c0:	f3 0f 1e fa          	endbr64
    23c4:	ff 25 0e 3b 00 00    	jmp    *0x3b0e(%rip)        # 5ed8 <_ZNSt7__cxx1112basic_stringIcSt11char_traitsIcESaIcEE13_M_set_lengthEm@GLIBCXX_3.4.21>
    23ca:	66 0f 1f 44 00 00    	nopw   0x0(%rax,%rax,1)

00000000000023d0 <_ZNKSt7__cxx1112basic_stringIcSt11char_traitsIcESaIcEE4sizeEv@plt>:
    23d0:	f3 0f 1e fa          	endbr64
    23d4:	ff 25 06 3b 00 00    	jmp    *0x3b06(%rip)        # 5ee0 <_ZNKSt7__cxx1112basic_stringIcSt11char_traitsIcESaIcEE4sizeEv@GLIBCXX_3.4.21>
    23da:	66 0f 1f 44 00 00    	nopw   0x0(%rax,%rax,1)

00000000000023e0 <_ZSt19__throw_logic_errorPKc@plt>:
    23e0:	f3 0f 1e fa          	endbr64
    23e4:	ff 25 fe 3a 00 00    	jmp    *0x3afe(%rip)        # 5ee8 <_ZSt19__throw_logic_errorPKc@GLIBCXX_3.4>
    23ea:	66 0f 1f 44 00 00    	nopw   0x0(%rax,%rax,1)

00000000000023f0 <_ZNSt7__cxx1112basic_stringIcSt11char_traitsIcESaIcEE13_M_local_dataEv@plt>:
    23f0:	f3 0f 1e fa          	endbr64
    23f4:	ff 25 f6 3a 00 00    	jmp    *0x3af6(%rip)        # 5ef0 <_ZNSt7__cxx1112basic_stringIcSt11char_traitsIcESaIcEE13_M_local_dataEv@GLIBCXX_3.4.21>
    23fa:	66 0f 1f 44 00 00    	nopw   0x0(%rax,%rax,1)

0000000000002400 <_ZNSirsERd@plt>:
    2400:	f3 0f 1e fa          	endbr64
    2404:	ff 25 ee 3a 00 00    	jmp    *0x3aee(%rip)        # 5ef8 <_ZNSirsERd@GLIBCXX_3.4>
    240a:	66 0f 1f 44 00 00    	nopw   0x0(%rax,%rax,1)

0000000000002410 <_ZNSt7__cxx1112basic_stringIcSt11char_traitsIcESaIcEE7_M_dataEPc@plt>:
    2410:	f3 0f 1e fa          	endbr64
    2414:	ff 25 e6 3a 00 00    	jmp    *0x3ae6(%rip)        # 5f00 <_ZNSt7__cxx1112basic_stringIcSt11char_traitsIcESaIcEE7_M_dataEPc@GLIBCXX_3.4.21>
    241a:	66 0f 1f 44 00 00    	nopw   0x0(%rax,%rax,1)

0000000000002420 <system@plt>:
    2420:	f3 0f 1e fa          	endbr64
    2424:	ff 25 de 3a 00 00    	jmp    *0x3ade(%rip)        # 5f08 <system@GLIBC_2.2.5>
    242a:	66 0f 1f 44 00 00    	nopw   0x0(%rax,%rax,1)

0000000000002430 <_ZStlsIcSt11char_traitsIcESaIcEERSt13basic_ostreamIT_T0_ES7_RKNSt7__cxx1112basic_stringIS4_S5_T1_EE@plt>:
    2430:	f3 0f 1e fa          	endbr64
    2434:	ff 25 d6 3a 00 00    	jmp    *0x3ad6(%rip)        # 5f10 <_ZStlsIcSt11char_traitsIcESaIcEERSt13basic_ostreamIT_T0_ES7_RKNSt7__cxx1112basic_stringIS4_S5_T1_EE@GLIBCXX_3.4.21>
    243a:	66 0f 1f 44 00 00    	nopw   0x0(%rax,%rax,1)

0000000000002440 <_ZStlsISt11char_traitsIcEERSt13basic_ostreamIcT_ES5_PKc@plt>:
    2440:	f3 0f 1e fa          	endbr64
    2444:	ff 25 ce 3a 00 00    	jmp    *0x3ace(%rip)        # 5f18 <_ZStlsISt11char_traitsIcEERSt13basic_ostreamIcT_ES5_PKc@GLIBCXX_3.4>
    244a:	66 0f 1f 44 00 00    	nopw   0x0(%rax,%rax,1)

0000000000002450 <_ZNSolsEPFRSoS_E@plt>:
    2450:	f3 0f 1e fa          	endbr64
    2454:	ff 25 c6 3a 00 00    	jmp    *0x3ac6(%rip)        # 5f20 <_ZNSolsEPFRSoS_E@GLIBCXX_3.4>
    245a:	66 0f 1f 44 00 00    	nopw   0x0(%rax,%rax,1)

0000000000002460 <_ZNSt7__cxx1112basic_stringIcSt11char_traitsIcESaIcEE12_Alloc_hiderC1EPcRKS3_@plt>:
    2460:	f3 0f 1e fa          	endbr64
    2464:	ff 25 be 3a 00 00    	jmp    *0x3abe(%rip)        # 5f28 <_ZNSt7__cxx1112basic_stringIcSt11char_traitsIcESaIcEE12_Alloc_hiderC1EPcRKS3_@GLIBCXX_3.4.21>
    246a:	66 0f 1f 44 00 00    	nopw   0x0(%rax,%rax,1)

0000000000002470 <_ZNKSt7__cxx1112basic_stringIcSt11char_traitsIcESaIcEE7_M_dataEv@plt>:
    2470:	f3 0f 1e fa          	endbr64
    2474:	ff 25 b6 3a 00 00    	jmp    *0x3ab6(%rip)        # 5f30 <_ZNKSt7__cxx1112basic_stringIcSt11char_traitsIcESaIcEE7_M_dataEv@GLIBCXX_3.4.21>
    247a:	66 0f 1f 44 00 00    	nopw   0x0(%rax,%rax,1)

0000000000002480 <_ZNSt7__cxx1112basic_stringIcSt11char_traitsIcESaIcEE13_S_copy_charsEPcPKcS7_@plt>:
    2480:	f3 0f 1e fa          	endbr64
    2484:	ff 25 ae 3a 00 00    	jmp    *0x3aae(%rip)        # 5f38 <_ZNSt7__cxx1112basic_stringIcSt11char_traitsIcESaIcEE13_S_copy_charsEPcPKcS7_@GLIBCXX_3.4.21>
    248a:	66 0f 1f 44 00 00    	nopw   0x0(%rax,%rax,1)

0000000000002490 <__stack_chk_fail@plt>:
    2490:	f3 0f 1e fa          	endbr64
    2494:	ff 25 a6 3a 00 00    	jmp    *0x3aa6(%rip)        # 5f40 <__stack_chk_fail@GLIBC_2.4>
    249a:	66 0f 1f 44 00 00    	nopw   0x0(%rax,%rax,1)

00000000000024a0 <_ZNSt7__cxx1112basic_stringIcSt11char_traitsIcESaIcEE10_M_disposeEv@plt>:
    24a0:	f3 0f 1e fa          	endbr64
    24a4:	ff 25 9e 3a 00 00    	jmp    *0x3a9e(%rip)        # 5f48 <_ZNSt7__cxx1112basic_stringIcSt11char_traitsIcESaIcEE10_M_disposeEv@GLIBCXX_3.4.21>
    24aa:	66 0f 1f 44 00 00    	nopw   0x0(%rax,%rax,1)

00000000000024b0 <_ZdaPv@plt>:
    24b0:	f3 0f 1e fa          	endbr64
    24b4:	ff 25 96 3a 00 00    	jmp    *0x3a96(%rip)        # 5f50 <_ZdaPv@GLIBCXX_3.4>
    24ba:	66 0f 1f 44 00 00    	nopw   0x0(%rax,%rax,1)

00000000000024c0 <_ZNKSt7__cxx1112basic_stringIcSt11char_traitsIcESaIcEE4dataEv@plt>:
    24c0:	f3 0f 1e fa          	endbr64
    24c4:	ff 25 8e 3a 00 00    	jmp    *0x3a8e(%rip)        # 5f58 <_ZNKSt7__cxx1112basic_stringIcSt11char_traitsIcESaIcEE4dataEv@GLIBCXX_3.4.21>
    24ca:	66 0f 1f 44 00 00    	nopw   0x0(%rax,%rax,1)

00000000000024d0 <_ZNSt7__cxx1112basic_stringIcSt11char_traitsIcESaIcEEC1Ev@plt>:
    24d0:	f3 0f 1e fa          	endbr64
    24d4:	ff 25 86 3a 00 00    	jmp    *0x3a86(%rip)        # 5f60 <_ZNSt7__cxx1112basic_stringIcSt11char_traitsIcESaIcEEC1Ev@GLIBCXX_3.4.21>
    24da:	66 0f 1f 44 00 00    	nopw   0x0(%rax,%rax,1)

00000000000024e0 <_ZSt20__throw_out_of_rangePKc@plt>:
    24e0:	f3 0f 1e fa          	endbr64
    24e4:	ff 25 7e 3a 00 00    	jmp    *0x3a7e(%rip)        # 5f68 <_ZSt20__throw_out_of_rangePKc@GLIBCXX_3.4>
    24ea:	66 0f 1f 44 00 00    	nopw   0x0(%rax,%rax,1)

00000000000024f0 <_ZNKSt7__cxx1112basic_stringIcSt11char_traitsIcESaIcEE6lengthEv@plt>:
    24f0:	f3 0f 1e fa          	endbr64
    24f4:	ff 25 76 3a 00 00    	jmp    *0x3a76(%rip)        # 5f70 <_ZNKSt7__cxx1112basic_stringIcSt11char_traitsIcESaIcEE6lengthEv@GLIBCXX_3.4.21>
    24fa:	66 0f 1f 44 00 00    	nopw   0x0(%rax,%rax,1)

0000000000002500 <_ZNSt14basic_ifstreamIcSt11char_traitsIcEE7is_openEv@plt>:
    2500:	f3 0f 1e fa          	endbr64
    2504:	ff 25 6e 3a 00 00    	jmp    *0x3a6e(%rip)        # 5f78 <_ZNSt14basic_ifstreamIcSt11char_traitsIcEE7is_openEv@GLIBCXX_3.4>
    250a:	66 0f 1f 44 00 00    	nopw   0x0(%rax,%rax,1)

0000000000002510 <_ZNSolsEi@plt>:
    2510:	f3 0f 1e fa          	endbr64
    2514:	ff 25 66 3a 00 00    	jmp    *0x3a66(%rip)        # 5f80 <_ZNSolsEi@GLIBCXX_3.4>
    251a:	66 0f 1f 44 00 00    	nopw   0x0(%rax,%rax,1)

0000000000002520 <pow@plt>:
    2520:	f3 0f 1e fa          	endbr64
    2524:	ff 25 5e 3a 00 00    	jmp    *0x3a5e(%rip)        # 5f88 <pow@GLIBC_2.29>
    252a:	66 0f 1f 44 00 00    	nopw   0x0(%rax,%rax,1)

0000000000002530 <_Unwind_Resume@plt>:
    2530:	f3 0f 1e fa          	endbr64
    2534:	ff 25 56 3a 00 00    	jmp    *0x3a56(%rip)        # 5f90 <_Unwind_Resume@GCC_3.0>
    253a:	66 0f 1f 44 00 00    	nopw   0x0(%rax,%rax,1)

0000000000002540 <_ZNSolsEb@plt>:
    2540:	f3 0f 1e fa          	endbr64
    2544:	ff 25 4e 3a 00 00    	jmp    *0x3a4e(%rip)        # 5f98 <_ZNSolsEb@GLIBCXX_3.4>
    254a:	66 0f 1f 44 00 00    	nopw   0x0(%rax,%rax,1)

0000000000002550 <_ZNSt7__cxx1112basic_stringIcSt11char_traitsIcESaIcEE9_M_createERmm@plt>:
    2550:	f3 0f 1e fa          	endbr64
    2554:	ff 25 46 3a 00 00    	jmp    *0x3a46(%rip)        # 5fa0 <_ZNSt7__cxx1112basic_stringIcSt11char_traitsIcESaIcEE9_M_createERmm@GLIBCXX_3.4.21>
    255a:	66 0f 1f 44 00 00    	nopw   0x0(%rax,%rax,1)

0000000000002560 <_ZNSolsEl@plt>:
    2560:	f3 0f 1e fa          	endbr64
    2564:	ff 25 3e 3a 00 00    	jmp    *0x3a3e(%rip)        # 5fa8 <_ZNSolsEl@GLIBCXX_3.4>
    256a:	66 0f 1f 44 00 00    	nopw   0x0(%rax,%rax,1)

0000000000002570 <_ZNSt14basic_ifstreamIcSt11char_traitsIcEEC1EPKcSt13_Ios_Openmode@plt>:
    2570:	f3 0f 1e fa          	endbr64
    2574:	ff 25 36 3a 00 00    	jmp    *0x3a36(%rip)        # 5fb0 <_ZNSt14basic_ifstreamIcSt11char_traitsIcEEC1EPKcSt13_Ios_Openmode@GLIBCXX_3.4>
    257a:	66 0f 1f 44 00 00    	nopw   0x0(%rax,%rax,1)

0000000000002580 <_ZNSolsEd@plt>:
    2580:	f3 0f 1e fa          	endbr64
    2584:	ff 25 2e 3a 00 00    	jmp    *0x3a2e(%rip)        # 5fb8 <_ZNSolsEd@GLIBCXX_3.4>
    258a:	66 0f 1f 44 00 00    	nopw   0x0(%rax,%rax,1)

0000000000002590 <_ZNSt7__cxx1112basic_stringIcSt11char_traitsIcESaIcEE11_M_capacityEm@plt>:
    2590:	f3 0f 1e fa          	endbr64
    2594:	ff 25 26 3a 00 00    	jmp    *0x3a26(%rip)        # 5fc0 <_ZNSt7__cxx1112basic_stringIcSt11char_traitsIcESaIcEE11_M_capacityEm@GLIBCXX_3.4.21>
    259a:	66 0f 1f 44 00 00    	nopw   0x0(%rax,%rax,1)

Disassembly of section .text:

00000000000025a0 <_start>:
    25a0:	f3 0f 1e fa          	endbr64
    25a4:	31 ed                	xor    %ebp,%ebp
    25a6:	49 89 d1             	mov    %rdx,%r9
    25a9:	5e                   	pop    %rsi
    25aa:	48 89 e2             	mov    %rsp,%rdx
    25ad:	48 83 e4 f0          	and    $0xfffffffffffffff0,%rsp
    25b1:	50                   	push   %rax
    25b2:	54                   	push   %rsp
    25b3:	45 31 c0             	xor    %r8d,%r8d
    25b6:	31 c9                	xor    %ecx,%ecx
    25b8:	48 8d 3d 27 09 00 00 	lea    0x927(%rip),%rdi        # 2ee6 <main>
    25bf:	ff 15 13 3a 00 00    	call   *0x3a13(%rip)        # 5fd8 <__libc_start_main@GLIBC_2.34>
    25c5:	f4                   	hlt
    25c6:	66 2e 0f 1f 84 00 00 	cs nopw 0x0(%rax,%rax,1)
    25cd:	00 00 00 

00000000000025d0 <deregister_tm_clones>:
    25d0:	48 8d 3d 41 3a 00 00 	lea    0x3a41(%rip),%rdi        # 6018 <__TMC_END__>
    25d7:	48 8d 05 3a 3a 00 00 	lea    0x3a3a(%rip),%rax        # 6018 <__TMC_END__>
    25de:	48 39 f8             	cmp    %rdi,%rax
    25e1:	74 15                	je     25f8 <deregister_tm_clones+0x28>
    25e3:	48 8b 05 f6 39 00 00 	mov    0x39f6(%rip),%rax        # 5fe0 <_ITM_deregisterTMCloneTable@Base>
    25ea:	48 85 c0             	test   %rax,%rax
    25ed:	74 09                	je     25f8 <deregister_tm_clones+0x28>
    25ef:	ff e0                	jmp    *%rax
    25f1:	0f 1f 80 00 00 00 00 	nopl   0x0(%rax)
    25f8:	c3                   	ret
    25f9:	0f 1f 80 00 00 00 00 	nopl   0x0(%rax)

0000000000002600 <register_tm_clones>:
    2600:	48 8d 3d 11 3a 00 00 	lea    0x3a11(%rip),%rdi        # 6018 <__TMC_END__>
    2607:	48 8d 35 0a 3a 00 00 	lea    0x3a0a(%rip),%rsi        # 6018 <__TMC_END__>
    260e:	48 29 fe             	sub    %rdi,%rsi
    2611:	48 89 f0             	mov    %rsi,%rax
    2614:	48 c1 ee 3f          	shr    $0x3f,%rsi
    2618:	48 c1 f8 03          	sar    $0x3,%rax
    261c:	48 01 c6             	add    %rax,%rsi
    261f:	48 d1 fe             	sar    $1,%rsi
    2622:	74 14                	je     2638 <register_tm_clones+0x38>
    2624:	48 8b 05 c5 39 00 00 	mov    0x39c5(%rip),%rax        # 5ff0 <_ITM_registerTMCloneTable@Base>
    262b:	48 85 c0             	test   %rax,%rax
    262e:	74 08                	je     2638 <register_tm_clones+0x38>
    2630:	ff e0                	jmp    *%rax
    2632:	66 0f 1f 44 00 00    	nopw   0x0(%rax,%rax,1)
    2638:	c3                   	ret
    2639:	0f 1f 80 00 00 00 00 	nopl   0x0(%rax)

0000000000002640 <__do_global_dtors_aux>:
    2640:	f3 0f 1e fa          	endbr64
    2644:	80 3d 2d 3c 00 00 00 	cmpb   $0x0,0x3c2d(%rip)        # 6278 <completed.0>
    264b:	75 2b                	jne    2678 <__do_global_dtors_aux+0x38>
    264d:	55                   	push   %rbp
    264e:	48 83 3d 72 39 00 00 	cmpq   $0x0,0x3972(%rip)        # 5fc8 <__cxa_finalize@GLIBC_2.2.5>
    2655:	00 
    2656:	48 89 e5             	mov    %rsp,%rbp
    2659:	74 0c                	je     2667 <__do_global_dtors_aux+0x27>
    265b:	48 8b 3d a6 39 00 00 	mov    0x39a6(%rip),%rdi        # 6008 <__dso_handle>
    2662:	e8 79 fc ff ff       	call   22e0 <__cxa_finalize@plt>
    2667:	e8 64 ff ff ff       	call   25d0 <deregister_tm_clones>
    266c:	c6 05 05 3c 00 00 01 	movb   $0x1,0x3c05(%rip)        # 6278 <completed.0>
    2673:	5d                   	pop    %rbp
    2674:	c3                   	ret
    2675:	0f 1f 00             	nopl   (%rax)
    2678:	c3                   	ret
    2679:	0f 1f 80 00 00 00 00 	nopl   0x0(%rax)

0000000000002680 <frame_dummy>:
    2680:	f3 0f 1e fa          	endbr64
    2684:	e9 77 ff ff ff       	jmp    2600 <register_tm_clones>

0000000000002689 <_Z11fourargfunciiiP6Circle>:
    2689:	f3 0f 1e fa          	endbr64
    268d:	55                   	push   %rbp
    268e:	48 89 e5             	mov    %rsp,%rbp
    2691:	48 83 ec 30          	sub    $0x30,%rsp
    2695:	89 7d ec             	mov    %edi,-0x14(%rbp)
    2698:	89 75 e8             	mov    %esi,-0x18(%rbp)
    269b:	89 55 e4             	mov    %edx,-0x1c(%rbp)
    269e:	48 89 4d d8          	mov    %rcx,-0x28(%rbp)
    26a2:	8b 55 ec             	mov    -0x14(%rbp),%edx
    26a5:	8b 45 e8             	mov    -0x18(%rbp),%eax
    26a8:	01 c2                	add    %eax,%edx
    26aa:	8b 45 e4             	mov    -0x1c(%rbp),%eax
    26ad:	01 c2                	add    %eax,%edx
    26af:	48 8b 45 d8          	mov    -0x28(%rbp),%rax
    26b3:	8b 40 08             	mov    0x8(%rax),%eax
    26b6:	01 c2                	add    %eax,%edx
    26b8:	48 8b 45 d8          	mov    -0x28(%rbp),%rax
    26bc:	8b 40 0c             	mov    0xc(%rax),%eax
    26bf:	01 d0                	add    %edx,%eax
    26c1:	89 45 fc             	mov    %eax,-0x4(%rbp)
    26c4:	48 8d 05 42 19 00 00 	lea    0x1942(%rip),%rax        # 400d <_IO_stdin_used+0xd>
    26cb:	48 89 c6             	mov    %rax,%rsi
    26ce:	48 8d 05 6b 39 00 00 	lea    0x396b(%rip),%rax        # 6040 <_ZSt4cout@GLIBCXX_3.4>
    26d5:	48 89 c7             	mov    %rax,%rdi
    26d8:	e8 63 fd ff ff       	call   2440 <_ZStlsISt11char_traitsIcEERSt13basic_ostreamIcT_ES5_PKc@plt>
    26dd:	48 89 c2             	mov    %rax,%rdx
    26e0:	8b 45 fc             	mov    -0x4(%rbp),%eax
    26e3:	89 c6                	mov    %eax,%esi
    26e5:	48 89 d7             	mov    %rdx,%rdi
    26e8:	e8 23 fe ff ff       	call   2510 <_ZNSolsEi@plt>
    26ed:	48 8b 15 dc 38 00 00 	mov    0x38dc(%rip),%rdx        # 5fd0 <_ZSt4endlIcSt11char_traitsIcEERSt13basic_ostreamIT_T0_ES6_@GLIBCXX_3.4>
    26f4:	48 89 d6             	mov    %rdx,%rsi
    26f7:	48 89 c7             	mov    %rax,%rdi
    26fa:	e8 51 fd ff ff       	call   2450 <_ZNSolsEPFRSoS_E@plt>
    26ff:	90                   	nop
    2700:	c9                   	leave
    2701:	c3                   	ret

0000000000002702 <_Z5part1v>:
    2702:	f3 0f 1e fa          	endbr64
    2706:	55                   	push   %rbp
    2707:	48 89 e5             	mov    %rsp,%rbp
    270a:	53                   	push   %rbx
    270b:	48 83 ec 38          	sub    $0x38,%rsp
    270f:	64 48 8b 04 25 28 00 	mov    %fs:0x28,%rax
    2716:	00 00 
    2718:	48 89 45 e8          	mov    %rax,-0x18(%rbp)
    271c:	31 c0                	xor    %eax,%eax
    271e:	48 8d 05 f2 18 00 00 	lea    0x18f2(%rip),%rax        # 4017 <_IO_stdin_used+0x17>
    2725:	48 89 c6             	mov    %rax,%rsi
    2728:	48 8d 05 11 39 00 00 	lea    0x3911(%rip),%rax        # 6040 <_ZSt4cout@GLIBCXX_3.4>
    272f:	48 89 c7             	mov    %rax,%rdi
    2732:	e8 09 fd ff ff       	call   2440 <_ZStlsISt11char_traitsIcEERSt13basic_ostreamIcT_ES5_PKc@plt>
    2737:	48 8d 45 c8          	lea    -0x38(%rbp),%rax
    273b:	48 89 c6             	mov    %rax,%rsi
    273e:	48 8d 05 1b 3a 00 00 	lea    0x3a1b(%rip),%rax        # 6160 <_ZSt3cin@GLIBCXX_3.4>
    2745:	48 89 c7             	mov    %rax,%rdi
    2748:	e8 b3 fc ff ff       	call   2400 <_ZNSirsERd@plt>
    274d:	48 8b 55 c8          	mov    -0x38(%rbp),%rdx
    2751:	48 8d 45 d0          	lea    -0x30(%rbp),%rax
    2755:	66 48 0f 6e c2       	movq   %rdx,%xmm0
    275a:	48 89 c7             	mov    %rax,%rdi
    275d:	e8 fc 0b 00 00       	call   335e <_ZN6CircleC1Ed>
    2762:	c7 45 d8 00 00 00 00 	movl   $0x0,-0x28(%rbp)
    2769:	c7 45 dc 01 00 00 00 	movl   $0x1,-0x24(%rbp)
    2770:	8b 45 d8             	mov    -0x28(%rbp),%eax
    2773:	85 c0                	test   %eax,%eax
    2775:	79 2d                	jns    27a4 <_Z5part1v+0xa2>
    2777:	48 8d 05 aa 18 00 00 	lea    0x18aa(%rip),%rax        # 4028 <_IO_stdin_used+0x28>
    277e:	48 89 c6             	mov    %rax,%rsi
    2781:	48 8d 05 b8 38 00 00 	lea    0x38b8(%rip),%rax        # 6040 <_ZSt4cout@GLIBCXX_3.4>
    2788:	48 89 c7             	mov    %rax,%rdi
    278b:	e8 b0 fc ff ff       	call   2440 <_ZStlsISt11char_traitsIcEERSt13basic_ostreamIcT_ES5_PKc@plt>
    2790:	48 8b 15 39 38 00 00 	mov    0x3839(%rip),%rdx        # 5fd0 <_ZSt4endlIcSt11char_traitsIcEERSt13basic_ostreamIT_T0_ES6_@GLIBCXX_3.4>
    2797:	48 89 d6             	mov    %rdx,%rsi
    279a:	48 89 c7             	mov    %rax,%rdi
    279d:	e8 ae fc ff ff       	call   2450 <_ZNSolsEPFRSoS_E@plt>
    27a2:	eb 5f                	jmp    2803 <_Z5part1v+0x101>
    27a4:	8b 45 d8             	mov    -0x28(%rbp),%eax
    27a7:	85 c0                	test   %eax,%eax
    27a9:	75 2d                	jne    27d8 <_Z5part1v+0xd6>
    27ab:	48 8d 05 a6 18 00 00 	lea    0x18a6(%rip),%rax        # 4058 <_IO_stdin_used+0x58>
    27b2:	48 89 c6             	mov    %rax,%rsi
    27b5:	48 8d 05 84 38 00 00 	lea    0x3884(%rip),%rax        # 6040 <_ZSt4cout@GLIBCXX_3.4>
    27bc:	48 89 c7             	mov    %rax,%rdi
    27bf:	e8 7c fc ff ff       	call   2440 <_ZStlsISt11char_traitsIcEERSt13basic_ostreamIcT_ES5_PKc@plt>
    27c4:	48 8b 15 05 38 00 00 	mov    0x3805(%rip),%rdx        # 5fd0 <_ZSt4endlIcSt11char_traitsIcEERSt13basic_ostreamIT_T0_ES6_@GLIBCXX_3.4>
    27cb:	48 89 d6             	mov    %rdx,%rsi
    27ce:	48 89 c7             	mov    %rax,%rdi
    27d1:	e8 7a fc ff ff       	call   2450 <_ZNSolsEPFRSoS_E@plt>
    27d6:	eb 2b                	jmp    2803 <_Z5part1v+0x101>
    27d8:	48 8d 05 a9 18 00 00 	lea    0x18a9(%rip),%rax        # 4088 <_IO_stdin_used+0x88>
    27df:	48 89 c6             	mov    %rax,%rsi
    27e2:	48 8d 05 57 38 00 00 	lea    0x3857(%rip),%rax        # 6040 <_ZSt4cout@GLIBCXX_3.4>
    27e9:	48 89 c7             	mov    %rax,%rdi
    27ec:	e8 4f fc ff ff       	call   2440 <_ZStlsISt11char_traitsIcEERSt13basic_ostreamIcT_ES5_PKc@plt>
    27f1:	48 8b 15 d8 37 00 00 	mov    0x37d8(%rip),%rdx        # 5fd0 <_ZSt4endlIcSt11char_traitsIcEERSt13basic_ostreamIT_T0_ES6_@GLIBCXX_3.4>
    27f8:	48 89 d6             	mov    %rdx,%rsi
    27fb:	48 89 c7             	mov    %rax,%rdi
    27fe:	e8 4d fc ff ff       	call   2450 <_ZNSolsEPFRSoS_E@plt>
    2803:	48 8d 05 ac 18 00 00 	lea    0x18ac(%rip),%rax        # 40b6 <_IO_stdin_used+0xb6>
    280a:	48 89 c6             	mov    %rax,%rsi
    280d:	48 8d 05 2c 38 00 00 	lea    0x382c(%rip),%rax        # 6040 <_ZSt4cout@GLIBCXX_3.4>
    2814:	48 89 c7             	mov    %rax,%rdi
    2817:	e8 24 fc ff ff       	call   2440 <_ZStlsISt11char_traitsIcEERSt13basic_ostreamIcT_ES5_PKc@plt>
    281c:	48 89 c3             	mov    %rax,%rbx
    281f:	48 8d 45 d0          	lea    -0x30(%rbp),%rax
    2823:	48 89 c7             	mov    %rax,%rdi
    2826:	e8 55 0b 00 00       	call   3380 <_ZN6Circle4areaEv>
    282b:	66 48 0f 7e c0       	movq   %xmm0,%rax
    2830:	66 48 0f 6e c0       	movq   %rax,%xmm0
    2835:	48 89 df             	mov    %rbx,%rdi
    2838:	e8 43 fd ff ff       	call   2580 <_ZNSolsEd@plt>
    283d:	48 89 c2             	mov    %rax,%rdx
    2840:	48 8d 05 77 18 00 00 	lea    0x1877(%rip),%rax        # 40be <_IO_stdin_used+0xbe>
    2847:	48 89 c6             	mov    %rax,%rsi
    284a:	48 89 d7             	mov    %rdx,%rdi
    284d:	e8 ee fb ff ff       	call   2440 <_ZStlsISt11char_traitsIcEERSt13basic_ostreamIcT_ES5_PKc@plt>
    2852:	48 89 c3             	mov    %rax,%rbx
    2855:	48 8d 45 d0          	lea    -0x30(%rbp),%rax
    2859:	48 89 c7             	mov    %rax,%rdi
    285c:	e8 53 0b 00 00       	call   33b4 <_ZN6Circle13circumferenceEv>
    2861:	66 48 0f 7e c0       	movq   %xmm0,%rax
    2866:	66 48 0f 6e c0       	movq   %rax,%xmm0
    286b:	48 89 df             	mov    %rbx,%rdi
    286e:	e8 0d fd ff ff       	call   2580 <_ZNSolsEd@plt>
    2873:	48 89 c2             	mov    %rax,%rdx
    2876:	48 8d 05 54 18 00 00 	lea    0x1854(%rip),%rax        # 40d1 <_IO_stdin_used+0xd1>
    287d:	48 89 c6             	mov    %rax,%rsi
    2880:	48 89 d7             	mov    %rdx,%rdi
    2883:	e8 b8 fb ff ff       	call   2440 <_ZStlsISt11char_traitsIcEERSt13basic_ostreamIcT_ES5_PKc@plt>
    2888:	48 89 c3             	mov    %rax,%rbx
    288b:	48 8d 45 d0          	lea    -0x30(%rbp),%rax
    288f:	48 89 c7             	mov    %rax,%rdi
    2892:	e8 3f 0b 00 00       	call   33d6 <_ZN6Circle8diameterEv>
    2897:	66 48 0f 7e c0       	movq   %xmm0,%rax
    289c:	66 48 0f 6e c0       	movq   %rax,%xmm0
    28a1:	48 89 df             	mov    %rbx,%rdi
    28a4:	e8 d7 fc ff ff       	call   2580 <_ZNSolsEd@plt>
    28a9:	48 8b 15 20 37 00 00 	mov    0x3720(%rip),%rdx        # 5fd0 <_ZSt4endlIcSt11char_traitsIcEERSt13basic_ostreamIT_T0_ES6_@GLIBCXX_3.4>
    28b0:	48 89 d6             	mov    %rdx,%rsi
    28b3:	48 89 c7             	mov    %rax,%rdi
    28b6:	e8 95 fb ff ff       	call   2450 <_ZNSolsEPFRSoS_E@plt>
    28bb:	48 8b 15 56 19 00 00 	mov    0x1956(%rip),%rdx        # 4218 <_ZSt12__is_ratio_vISt5ratioILl1000000000ELl1EEE+0x11>
    28c2:	48 8d 45 d0          	lea    -0x30(%rbp),%rax
    28c6:	66 48 0f 6e c2       	movq   %rdx,%xmm0
    28cb:	48 89 c7             	mov    %rax,%rdi
    28ce:	e8 1d 0b 00 00       	call   33f0 <_ZN6Circle13change_radiusEd>
    28d3:	48 8d 05 05 18 00 00 	lea    0x1805(%rip),%rax        # 40df <_IO_stdin_used+0xdf>
    28da:	48 89 c6             	mov    %rax,%rsi
    28dd:	48 8d 05 5c 37 00 00 	lea    0x375c(%rip),%rax        # 6040 <_ZSt4cout@GLIBCXX_3.4>
    28e4:	48 89 c7             	mov    %rax,%rdi
    28e7:	e8 54 fb ff ff       	call   2440 <_ZStlsISt11char_traitsIcEERSt13basic_ostreamIcT_ES5_PKc@plt>
    28ec:	48 89 c3             	mov    %rax,%rbx
    28ef:	48 8d 45 d0          	lea    -0x30(%rbp),%rax
    28f3:	48 89 c7             	mov    %rax,%rdi
    28f6:	e8 db 0a 00 00       	call   33d6 <_ZN6Circle8diameterEv>
    28fb:	66 48 0f 7e c0       	movq   %xmm0,%rax
    2900:	66 48 0f 6e c0       	movq   %rax,%xmm0
    2905:	48 89 df             	mov    %rbx,%rdi
    2908:	e8 73 fc ff ff       	call   2580 <_ZNSolsEd@plt>
    290d:	48 8b 15 bc 36 00 00 	mov    0x36bc(%rip),%rdx        # 5fd0 <_ZSt4endlIcSt11char_traitsIcEERSt13basic_ostreamIT_T0_ES6_@GLIBCXX_3.4>
    2914:	48 89 d6             	mov    %rdx,%rsi
    2917:	48 89 c7             	mov    %rax,%rdi
    291a:	e8 31 fb ff ff       	call   2450 <_ZNSolsEPFRSoS_E@plt>
    291f:	48 8d 45 d0          	lea    -0x30(%rbp),%rax
    2923:	48 89 c1             	mov    %rax,%rcx
    2926:	ba 02 00 00 00       	mov    $0x2,%edx
    292b:	be 03 00 00 00       	mov    $0x3,%esi
    2930:	bf 05 00 00 00       	mov    $0x5,%edi
    2935:	e8 4f fd ff ff       	call   2689 <_Z11fourargfunciiiP6Circle>
    293a:	90                   	nop
    293b:	48 8b 45 e8          	mov    -0x18(%rbp),%rax
    293f:	64 48 2b 04 25 28 00 	sub    %fs:0x28,%rax
    2946:	00 00 
    2948:	74 05                	je     294f <_Z5part1v+0x24d>
    294a:	e8 41 fb ff ff       	call   2490 <__stack_chk_fail@plt>
    294f:	48 8b 5d f8          	mov    -0x8(%rbp),%rbx
    2953:	c9                   	leave
    2954:	c3                   	ret

0000000000002955 <_Z5part2v>:
    2955:	f3 0f 1e fa          	endbr64
    2959:	55                   	push   %rbp
    295a:	48 89 e5             	mov    %rsp,%rbp
    295d:	53                   	push   %rbx
    295e:	48 83 ec 78          	sub    $0x78,%rsp
    2962:	64 48 8b 04 25 28 00 	mov    %fs:0x28,%rax
    2969:	00 00 
    296b:	48 89 45 e8          	mov    %rax,-0x18(%rbp)
    296f:	31 c0                	xor    %eax,%eax
    2971:	48 8d 45 8f          	lea    -0x71(%rbp),%rax
    2975:	48 89 45 90          	mov    %rax,-0x70(%rbp)
    2979:	90                   	nop
    297a:	90                   	nop
    297b:	48 8d 55 8f          	lea    -0x71(%rbp),%rdx
    297f:	48 8d 45 a0          	lea    -0x60(%rbp),%rax
    2983:	48 8d 0d 65 17 00 00 	lea    0x1765(%rip),%rcx        # 40ef <_IO_stdin_used+0xef>
    298a:	48 89 ce             	mov    %rcx,%rsi
    298d:	48 89 c7             	mov    %rax,%rdi
    2990:	e8 69 0d 00 00       	call   36fe <_ZNSt7__cxx1112basic_stringIcSt11char_traitsIcESaIcEEC1IS3_EEPKcRKS3_>
    2995:	48 8d 45 8f          	lea    -0x71(%rbp),%rax
    2999:	48 89 c7             	mov    %rax,%rdi
    299c:	e8 d7 0e 00 00       	call   3878 <_ZNSt15__new_allocatorIcED1Ev>
    29a1:	90                   	nop
    29a2:	48 8d 45 8f          	lea    -0x71(%rbp),%rax
    29a6:	48 89 45 98          	mov    %rax,-0x68(%rbp)
    29aa:	90                   	nop
    29ab:	90                   	nop
    29ac:	48 8d 55 8f          	lea    -0x71(%rbp),%rdx
    29b0:	48 8d 45 c0          	lea    -0x40(%rbp),%rax
    29b4:	48 8d 0d 41 17 00 00 	lea    0x1741(%rip),%rcx        # 40fc <_IO_stdin_used+0xfc>
    29bb:	48 89 ce             	mov    %rcx,%rsi
    29be:	48 89 c7             	mov    %rax,%rdi
    29c1:	e8 38 0d 00 00       	call   36fe <_ZNSt7__cxx1112basic_stringIcSt11char_traitsIcESaIcEEC1IS3_EEPKcRKS3_>
    29c6:	48 8d 45 8f          	lea    -0x71(%rbp),%rax
    29ca:	48 89 c7             	mov    %rax,%rdi
    29cd:	e8 a6 0e 00 00       	call   3878 <_ZNSt15__new_allocatorIcED1Ev>
    29d2:	90                   	nop
    29d3:	48 8d 05 26 17 00 00 	lea    0x1726(%rip),%rax        # 4100 <_IO_stdin_used+0x100>
    29da:	48 89 c6             	mov    %rax,%rsi
    29dd:	48 8d 05 5c 36 00 00 	lea    0x365c(%rip),%rax        # 6040 <_ZSt4cout@GLIBCXX_3.4>
    29e4:	48 89 c7             	mov    %rax,%rdi
    29e7:	e8 54 fa ff ff       	call   2440 <_ZStlsISt11char_traitsIcEERSt13basic_ostreamIcT_ES5_PKc@plt>
    29ec:	48 89 c2             	mov    %rax,%rdx
    29ef:	48 8d 45 a0          	lea    -0x60(%rbp),%rax
    29f3:	48 89 c6             	mov    %rax,%rsi
    29f6:	48 89 d7             	mov    %rdx,%rdi
    29f9:	e8 32 fa ff ff       	call   2430 <_ZStlsIcSt11char_traitsIcESaIcEERSt13basic_ostreamIT_T0_ES7_RKNSt7__cxx1112basic_stringIS4_S5_T1_EE@plt>
    29fe:	48 89 c2             	mov    %rax,%rdx
    2a01:	48 8d 05 0b 17 00 00 	lea    0x170b(%rip),%rax        # 4113 <_IO_stdin_used+0x113>
    2a08:	48 89 c6             	mov    %rax,%rsi
    2a0b:	48 89 d7             	mov    %rdx,%rdi
    2a0e:	e8 2d fa ff ff       	call   2440 <_ZStlsISt11char_traitsIcEERSt13basic_ostreamIcT_ES5_PKc@plt>
    2a13:	48 89 c3             	mov    %rax,%rbx
    2a16:	48 8d 45 a0          	lea    -0x60(%rbp),%rax
    2a1a:	48 89 c7             	mov    %rax,%rdi
    2a1d:	e8 ce fa ff ff       	call   24f0 <_ZNKSt7__cxx1112basic_stringIcSt11char_traitsIcESaIcEE6lengthEv@plt>
    2a22:	48 89 c6             	mov    %rax,%rsi
    2a25:	48 89 df             	mov    %rbx,%rdi
    2a28:	e8 13 f9 ff ff       	call   2340 <_ZNSolsEm@plt>
    2a2d:	48 8b 15 9c 35 00 00 	mov    0x359c(%rip),%rdx        # 5fd0 <_ZSt4endlIcSt11char_traitsIcEERSt13basic_ostreamIT_T0_ES6_@GLIBCXX_3.4>
    2a34:	48 89 d6             	mov    %rdx,%rsi
    2a37:	48 89 c7             	mov    %rax,%rdi
    2a3a:	e8 11 fa ff ff       	call   2450 <_ZNSolsEPFRSoS_E@plt>
    2a3f:	48 8d 05 d2 16 00 00 	lea    0x16d2(%rip),%rax        # 4118 <_IO_stdin_used+0x118>
    2a46:	48 89 c6             	mov    %rax,%rsi
    2a49:	48 8d 05 f0 35 00 00 	lea    0x35f0(%rip),%rax        # 6040 <_ZSt4cout@GLIBCXX_3.4>
    2a50:	48 89 c7             	mov    %rax,%rdi
    2a53:	e8 e8 f9 ff ff       	call   2440 <_ZStlsISt11char_traitsIcEERSt13basic_ostreamIcT_ES5_PKc@plt>
    2a58:	48 89 c2             	mov    %rax,%rdx
    2a5b:	48 8d 45 c0          	lea    -0x40(%rbp),%rax
    2a5f:	48 89 c6             	mov    %rax,%rsi
    2a62:	48 89 d7             	mov    %rdx,%rdi
    2a65:	e8 c6 f9 ff ff       	call   2430 <_ZStlsIcSt11char_traitsIcESaIcEERSt13basic_ostreamIT_T0_ES7_RKNSt7__cxx1112basic_stringIS4_S5_T1_EE@plt>
    2a6a:	48 89 c2             	mov    %rax,%rdx
    2a6d:	48 8d 05 9f 16 00 00 	lea    0x169f(%rip),%rax        # 4113 <_IO_stdin_used+0x113>
    2a74:	48 89 c6             	mov    %rax,%rsi
    2a77:	48 89 d7             	mov    %rdx,%rdi
    2a7a:	e8 c1 f9 ff ff       	call   2440 <_ZStlsISt11char_traitsIcEERSt13basic_ostreamIcT_ES5_PKc@plt>
    2a7f:	48 89 c3             	mov    %rax,%rbx
    2a82:	48 8d 45 c0          	lea    -0x40(%rbp),%rax
    2a86:	ba 0a 00 00 00       	mov    $0xa,%edx
    2a8b:	be 00 00 00 00       	mov    $0x0,%esi
    2a90:	48 89 c7             	mov    %rax,%rdi
    2a93:	e8 1e 07 00 00       	call   31b6 <_ZNSt7__cxx114stoiERKNS_12basic_stringIcSt11char_traitsIcESaIcEEEPmi>
    2a98:	89 c6                	mov    %eax,%esi
    2a9a:	48 89 df             	mov    %rbx,%rdi
    2a9d:	e8 6e fa ff ff       	call   2510 <_ZNSolsEi@plt>
    2aa2:	48 8b 15 27 35 00 00 	mov    0x3527(%rip),%rdx        # 5fd0 <_ZSt4endlIcSt11char_traitsIcEERSt13basic_ostreamIT_T0_ES6_@GLIBCXX_3.4>
    2aa9:	48 89 d6             	mov    %rdx,%rsi
    2aac:	48 89 c7             	mov    %rax,%rdi
    2aaf:	e8 9c f9 ff ff       	call   2450 <_ZNSolsEPFRSoS_E@plt>
    2ab4:	48 8d 05 55 08 00 00 	lea    0x855(%rip),%rax        # 3310 <_ZSt9boolalphaRSt8ios_base>
    2abb:	48 89 c6             	mov    %rax,%rsi
    2abe:	48 8d 05 7b 35 00 00 	lea    0x357b(%rip),%rax        # 6040 <_ZSt4cout@GLIBCXX_3.4>
    2ac5:	48 89 c7             	mov    %rax,%rdi
    2ac8:	e8 93 f8 ff ff       	call   2360 <_ZNSolsEPFRSt8ios_baseS0_E@plt>
    2acd:	48 89 c3             	mov    %rax,%rbx
    2ad0:	48 8d 55 c0          	lea    -0x40(%rbp),%rdx
    2ad4:	48 8d 45 a0          	lea    -0x60(%rbp),%rax
    2ad8:	48 89 d6             	mov    %rdx,%rsi
    2adb:	48 89 c7             	mov    %rax,%rdi
    2ade:	e8 c3 0c 00 00       	call   37a6 <_ZStneIcSt11char_traitsIcESaIcEEbRKNSt7__cxx1112basic_stringIT_T0_T1_EESA_>
    2ae3:	0f b6 c0             	movzbl %al,%eax
    2ae6:	89 c6                	mov    %eax,%esi
    2ae8:	48 89 df             	mov    %rbx,%rdi
    2aeb:	e8 50 fa ff ff       	call   2540 <_ZNSolsEb@plt>
    2af0:	48 8b 15 d9 34 00 00 	mov    0x34d9(%rip),%rdx        # 5fd0 <_ZSt4endlIcSt11char_traitsIcEERSt13basic_ostreamIT_T0_ES6_@GLIBCXX_3.4>
    2af7:	48 89 d6             	mov    %rdx,%rsi
    2afa:	48 89 c7             	mov    %rax,%rdi
    2afd:	e8 4e f9 ff ff       	call   2450 <_ZNSolsEPFRSoS_E@plt>
    2b02:	48 8d 45 c0          	lea    -0x40(%rbp),%rax
    2b06:	48 89 c7             	mov    %rax,%rdi
    2b09:	e8 a2 f8 ff ff       	call   23b0 <_ZNSt7__cxx1112basic_stringIcSt11char_traitsIcESaIcEED1Ev@plt>
    2b0e:	48 8d 45 a0          	lea    -0x60(%rbp),%rax
    2b12:	48 89 c7             	mov    %rax,%rdi
    2b15:	e8 96 f8 ff ff       	call   23b0 <_ZNSt7__cxx1112basic_stringIcSt11char_traitsIcESaIcEED1Ev@plt>
    2b1a:	48 8b 45 e8          	mov    -0x18(%rbp),%rax
    2b1e:	64 48 2b 04 25 28 00 	sub    %fs:0x28,%rax
    2b25:	00 00 
    2b27:	0f 84 91 00 00 00    	je     2bbe <_Z5part2v+0x269>
    2b2d:	e9 87 00 00 00       	jmp    2bb9 <_Z5part2v+0x264>
    2b32:	f3 0f 1e fa          	endbr64
    2b36:	48 89 c3             	mov    %rax,%rbx
    2b39:	48 8d 45 8f          	lea    -0x71(%rbp),%rax
    2b3d:	48 89 c7             	mov    %rax,%rdi
    2b40:	e8 33 0d 00 00       	call   3878 <_ZNSt15__new_allocatorIcED1Ev>
    2b45:	90                   	nop
    2b46:	48 89 d8             	mov    %rbx,%rax
    2b49:	48 8b 55 e8          	mov    -0x18(%rbp),%rdx
    2b4d:	64 48 2b 14 25 28 00 	sub    %fs:0x28,%rdx
    2b54:	00 00 
    2b56:	74 05                	je     2b5d <_Z5part2v+0x208>
    2b58:	e8 33 f9 ff ff       	call   2490 <__stack_chk_fail@plt>
    2b5d:	48 89 c7             	mov    %rax,%rdi
    2b60:	e8 cb f9 ff ff       	call   2530 <_Unwind_Resume@plt>
    2b65:	f3 0f 1e fa          	endbr64
    2b69:	48 89 c3             	mov    %rax,%rbx
    2b6c:	48 8d 45 8f          	lea    -0x71(%rbp),%rax
    2b70:	48 89 c7             	mov    %rax,%rdi
    2b73:	e8 00 0d 00 00       	call   3878 <_ZNSt15__new_allocatorIcED1Ev>
    2b78:	90                   	nop
    2b79:	eb 13                	jmp    2b8e <_Z5part2v+0x239>
    2b7b:	f3 0f 1e fa          	endbr64
    2b7f:	48 89 c3             	mov    %rax,%rbx
    2b82:	48 8d 45 c0          	lea    -0x40(%rbp),%rax
    2b86:	48 89 c7             	mov    %rax,%rdi
    2b89:	e8 22 f8 ff ff       	call   23b0 <_ZNSt7__cxx1112basic_stringIcSt11char_traitsIcESaIcEED1Ev@plt>
    2b8e:	48 8d 45 a0          	lea    -0x60(%rbp),%rax
    2b92:	48 89 c7             	mov    %rax,%rdi
    2b95:	e8 16 f8 ff ff       	call   23b0 <_ZNSt7__cxx1112basic_stringIcSt11char_traitsIcESaIcEED1Ev@plt>
    2b9a:	48 89 d8             	mov    %rbx,%rax
    2b9d:	48 8b 55 e8          	mov    -0x18(%rbp),%rdx
    2ba1:	64 48 2b 14 25 28 00 	sub    %fs:0x28,%rdx
    2ba8:	00 00 
    2baa:	74 05                	je     2bb1 <_Z5part2v+0x25c>
    2bac:	e8 df f8 ff ff       	call   2490 <__stack_chk_fail@plt>
    2bb1:	48 89 c7             	mov    %rax,%rdi
    2bb4:	e8 77 f9 ff ff       	call   2530 <_Unwind_Resume@plt>
    2bb9:	e8 d2 f8 ff ff       	call   2490 <__stack_chk_fail@plt>
    2bbe:	48 8b 5d f8          	mov    -0x8(%rbp),%rbx
    2bc2:	c9                   	leave
    2bc3:	c3                   	ret

0000000000002bc4 <_Z5part3v>:
    2bc4:	f3 0f 1e fa          	endbr64
    2bc8:	55                   	push   %rbp
    2bc9:	48 89 e5             	mov    %rsp,%rbp
    2bcc:	48 83 ec 20          	sub    $0x20,%rsp
    2bd0:	64 48 8b 04 25 28 00 	mov    %fs:0x28,%rax
    2bd7:	00 00 
    2bd9:	48 89 45 f8          	mov    %rax,-0x8(%rbp)
    2bdd:	31 c0                	xor    %eax,%eax
    2bdf:	48 8d 05 3d 15 00 00 	lea    0x153d(%rip),%rax        # 4123 <_IO_stdin_used+0x123>
    2be6:	48 89 c7             	mov    %rax,%rdi
    2be9:	e8 32 f8 ff ff       	call   2420 <system@plt>
    2bee:	89 45 e4             	mov    %eax,-0x1c(%rbp)
    2bf1:	48 8d 05 3f 07 00 00 	lea    0x73f(%rip),%rax        # 3337 <_ZSt11noboolalphaRSt8ios_base>
    2bf8:	48 89 c6             	mov    %rax,%rsi
    2bfb:	48 8d 05 3e 34 00 00 	lea    0x343e(%rip),%rax        # 6040 <_ZSt4cout@GLIBCXX_3.4>
    2c02:	48 89 c7             	mov    %rax,%rdi
    2c05:	e8 56 f7 ff ff       	call   2360 <_ZNSolsEPFRSt8ios_baseS0_E@plt>
    2c0a:	48 89 c2             	mov    %rax,%rdx
    2c0d:	48 8d 05 14 15 00 00 	lea    0x1514(%rip),%rax        # 4128 <_IO_stdin_used+0x128>
    2c14:	48 89 c6             	mov    %rax,%rsi
    2c17:	48 89 d7             	mov    %rdx,%rdi
    2c1a:	e8 21 f8 ff ff       	call   2440 <_ZStlsISt11char_traitsIcEERSt13basic_ostreamIcT_ES5_PKc@plt>
    2c1f:	48 89 c2             	mov    %rax,%rdx
    2c22:	8b 45 e4             	mov    -0x1c(%rbp),%eax
    2c25:	89 c6                	mov    %eax,%esi
    2c27:	48 89 d7             	mov    %rdx,%rdi
    2c2a:	e8 e1 f8 ff ff       	call   2510 <_ZNSolsEi@plt>
    2c2f:	48 8b 15 9a 33 00 00 	mov    0x339a(%rip),%rdx        # 5fd0 <_ZSt4endlIcSt11char_traitsIcEERSt13basic_ostreamIT_T0_ES6_@GLIBCXX_3.4>
    2c36:	48 89 d6             	mov    %rdx,%rsi
    2c39:	48 89 c7             	mov    %rax,%rdi
    2c3c:	e8 0f f8 ff ff       	call   2450 <_ZNSolsEPFRSoS_E@plt>
    2c41:	e8 ca f6 ff ff       	call   2310 <_ZNSt6chrono3_V212system_clock3nowEv@plt>
    2c46:	48 89 45 e8          	mov    %rax,-0x18(%rbp)
    2c4a:	48 8d 45 e8          	lea    -0x18(%rbp),%rax
    2c4e:	48 89 c7             	mov    %rax,%rdi
    2c51:	e8 bd 03 00 00       	call   3013 <_ZNSt6chrono3_V212system_clock9to_time_tERKNS_10time_pointIS1_NS_8durationIlSt5ratioILl1ELl1000000000EEEEEE>
    2c56:	48 89 45 f0          	mov    %rax,-0x10(%rbp)
    2c5a:	48 8d 05 e7 14 00 00 	lea    0x14e7(%rip),%rax        # 4148 <_IO_stdin_used+0x148>
    2c61:	48 89 c6             	mov    %rax,%rsi
    2c64:	48 8d 05 d5 33 00 00 	lea    0x33d5(%rip),%rax        # 6040 <_ZSt4cout@GLIBCXX_3.4>
    2c6b:	48 89 c7             	mov    %rax,%rdi
    2c6e:	e8 cd f7 ff ff       	call   2440 <_ZStlsISt11char_traitsIcEERSt13basic_ostreamIcT_ES5_PKc@plt>
    2c73:	48 89 c2             	mov    %rax,%rdx
    2c76:	48 8b 45 f0          	mov    -0x10(%rbp),%rax
    2c7a:	48 89 c6             	mov    %rax,%rsi
    2c7d:	48 89 d7             	mov    %rdx,%rdi
    2c80:	e8 db f8 ff ff       	call   2560 <_ZNSolsEl@plt>
    2c85:	48 8b 15 44 33 00 00 	mov    0x3344(%rip),%rdx        # 5fd0 <_ZSt4endlIcSt11char_traitsIcEERSt13basic_ostreamIT_T0_ES6_@GLIBCXX_3.4>
    2c8c:	48 89 d6             	mov    %rdx,%rsi
    2c8f:	48 89 c7             	mov    %rax,%rdi
    2c92:	e8 b9 f7 ff ff       	call   2450 <_ZNSolsEPFRSoS_E@plt>
    2c97:	90                   	nop
    2c98:	48 8b 45 f8          	mov    -0x8(%rbp),%rax
    2c9c:	64 48 2b 04 25 28 00 	sub    %fs:0x28,%rax
    2ca3:	00 00 
    2ca5:	74 05                	je     2cac <_Z5part3v+0xe8>
    2ca7:	e8 e4 f7 ff ff       	call   2490 <__stack_chk_fail@plt>
    2cac:	c9                   	leave
    2cad:	c3                   	ret

0000000000002cae <_Z5part4v>:
    2cae:	f3 0f 1e fa          	endbr64
    2cb2:	55                   	push   %rbp
    2cb3:	48 89 e5             	mov    %rsp,%rbp
    2cb6:	53                   	push   %rbx
    2cb7:	48 81 ec 38 02 00 00 	sub    $0x238,%rsp
    2cbe:	64 48 8b 04 25 28 00 	mov    %fs:0x28,%rax
    2cc5:	00 00 
    2cc7:	48 89 45 e8          	mov    %rax,-0x18(%rbp)
    2ccb:	31 c0                	xor    %eax,%eax
    2ccd:	48 8d 85 e0 fd ff ff 	lea    -0x220(%rbp),%rax
    2cd4:	ba 08 00 00 00       	mov    $0x8,%edx
    2cd9:	48 8d 0d 8f 14 00 00 	lea    0x148f(%rip),%rcx        # 416f <_IO_stdin_used+0x16f>
    2ce0:	48 89 ce             	mov    %rcx,%rsi
    2ce3:	48 89 c7             	mov    %rax,%rdi
    2ce6:	e8 85 f8 ff ff       	call   2570 <_ZNSt14basic_ifstreamIcSt11char_traitsIcEEC1EPKcSt13_Ios_Openmode@plt>
    2ceb:	48 8d 85 c0 fd ff ff 	lea    -0x240(%rbp),%rax
    2cf2:	48 89 c7             	mov    %rax,%rdi
    2cf5:	e8 d6 f7 ff ff       	call   24d0 <_ZNSt7__cxx1112basic_stringIcSt11char_traitsIcESaIcEEC1Ev@plt>
    2cfa:	48 8d 85 e0 fd ff ff 	lea    -0x220(%rbp),%rax
    2d01:	48 89 c7             	mov    %rax,%rdi
    2d04:	e8 f7 f7 ff ff       	call   2500 <_ZNSt14basic_ifstreamIcSt11char_traitsIcEE7is_openEv@plt>
    2d09:	84 c0                	test   %al,%al
    2d0b:	74 28                	je     2d35 <_Z5part4v+0x87>
    2d0d:	48 8d 95 c0 fd ff ff 	lea    -0x240(%rbp),%rdx
    2d14:	48 8d 85 e0 fd ff ff 	lea    -0x220(%rbp),%rax
    2d1b:	48 89 d6             	mov    %rdx,%rsi
    2d1e:	48 89 c7             	mov    %rax,%rdi
    2d21:	e8 fa f5 ff ff       	call   2320 <_ZSt7getlineIcSt11char_traitsIcESaIcEERSt13basic_istreamIT_T0_ES7_RNSt7__cxx1112basic_stringIS4_S5_T1_EE@plt>
    2d26:	48 8d 85 e0 fd ff ff 	lea    -0x220(%rbp),%rax
    2d2d:	48 89 c7             	mov    %rax,%rdi
    2d30:	e8 fb f5 ff ff       	call   2330 <_ZNSt14basic_ifstreamIcSt11char_traitsIcEE5closeEv@plt>
    2d35:	48 8d 85 c0 fd ff ff 	lea    -0x240(%rbp),%rax
    2d3c:	48 89 c6             	mov    %rax,%rsi
    2d3f:	48 8d 05 fa 32 00 00 	lea    0x32fa(%rip),%rax        # 6040 <_ZSt4cout@GLIBCXX_3.4>
    2d46:	48 89 c7             	mov    %rax,%rdi
    2d49:	e8 e2 f6 ff ff       	call   2430 <_ZStlsIcSt11char_traitsIcESaIcEERSt13basic_ostreamIT_T0_ES7_RKNSt7__cxx1112basic_stringIS4_S5_T1_EE@plt>
    2d4e:	48 8b 15 7b 32 00 00 	mov    0x327b(%rip),%rdx        # 5fd0 <_ZSt4endlIcSt11char_traitsIcEERSt13basic_ostreamIT_T0_ES6_@GLIBCXX_3.4>
    2d55:	48 89 d6             	mov    %rdx,%rsi
    2d58:	48 89 c7             	mov    %rax,%rdi
    2d5b:	e8 f0 f6 ff ff       	call   2450 <_ZNSolsEPFRSoS_E@plt>
    2d60:	48 8d 85 c0 fd ff ff 	lea    -0x240(%rbp),%rax
    2d67:	48 89 c7             	mov    %rax,%rdi
    2d6a:	e8 41 f6 ff ff       	call   23b0 <_ZNSt7__cxx1112basic_stringIcSt11char_traitsIcESaIcEED1Ev@plt>
    2d6f:	48 8d 85 e0 fd ff ff 	lea    -0x220(%rbp),%rax
    2d76:	48 89 c7             	mov    %rax,%rdi
    2d79:	e8 d2 f5 ff ff       	call   2350 <_ZNSt14basic_ifstreamIcSt11char_traitsIcEED1Ev@plt>
    2d7e:	48 8b 45 e8          	mov    -0x18(%rbp),%rax
    2d82:	64 48 2b 04 25 28 00 	sub    %fs:0x28,%rax
    2d89:	00 00 
    2d8b:	74 4b                	je     2dd8 <_Z5part4v+0x12a>
    2d8d:	eb 44                	jmp    2dd3 <_Z5part4v+0x125>
    2d8f:	f3 0f 1e fa          	endbr64
    2d93:	48 89 c3             	mov    %rax,%rbx
    2d96:	48 8d 85 c0 fd ff ff 	lea    -0x240(%rbp),%rax
    2d9d:	48 89 c7             	mov    %rax,%rdi
    2da0:	e8 0b f6 ff ff       	call   23b0 <_ZNSt7__cxx1112basic_stringIcSt11char_traitsIcESaIcEED1Ev@plt>
    2da5:	48 8d 85 e0 fd ff ff 	lea    -0x220(%rbp),%rax
    2dac:	48 89 c7             	mov    %rax,%rdi
    2daf:	e8 9c f5 ff ff       	call   2350 <_ZNSt14basic_ifstreamIcSt11char_traitsIcEED1Ev@plt>
    2db4:	48 89 d8             	mov    %rbx,%rax
    2db7:	48 8b 55 e8          	mov    -0x18(%rbp),%rdx
    2dbb:	64 48 2b 14 25 28 00 	sub    %fs:0x28,%rdx
    2dc2:	00 00 
    2dc4:	74 05                	je     2dcb <_Z5part4v+0x11d>
    2dc6:	e8 c5 f6 ff ff       	call   2490 <__stack_chk_fail@plt>
    2dcb:	48 89 c7             	mov    %rax,%rdi
    2dce:	e8 5d f7 ff ff       	call   2530 <_Unwind_Resume@plt>
    2dd3:	e8 b8 f6 ff ff       	call   2490 <__stack_chk_fail@plt>
    2dd8:	48 8b 5d f8          	mov    -0x8(%rbp),%rbx
    2ddc:	c9                   	leave
    2ddd:	c3                   	ret

0000000000002dde <_Z5part5v>:
    2dde:	f3 0f 1e fa          	endbr64
    2de2:	55                   	push   %rbp
    2de3:	48 89 e5             	mov    %rsp,%rbp
    2de6:	c7 45 fc 05 00 00 00 	movl   $0x5,-0x4(%rbp)
    2ded:	8b 55 fc             	mov    -0x4(%rbp),%edx
    2df0:	89 d0                	mov    %edx,%eax
    2df2:	c1 e0 02             	shl    $0x2,%eax
    2df5:	01 d0                	add    %edx,%eax
    2df7:	48 63 d0             	movslq %eax,%rdx
    2dfa:	48 69 d2 93 24 49 92 	imul   $0xffffffff92492493,%rdx,%rdx
    2e01:	48 c1 ea 20          	shr    $0x20,%rdx
    2e05:	01 c2                	add    %eax,%edx
    2e07:	c1 fa 02             	sar    $0x2,%edx
    2e0a:	89 c1                	mov    %eax,%ecx
    2e0c:	c1 f9 1f             	sar    $0x1f,%ecx
    2e0f:	29 ca                	sub    %ecx,%edx
    2e11:	89 55 fc             	mov    %edx,-0x4(%rbp)
    2e14:	8b 4d fc             	mov    -0x4(%rbp),%ecx
    2e17:	89 ca                	mov    %ecx,%edx
    2e19:	c1 e2 03             	shl    $0x3,%edx
    2e1c:	29 ca                	sub    %ecx,%edx
    2e1e:	29 d0                	sub    %edx,%eax
    2e20:	89 45 fc             	mov    %eax,-0x4(%rbp)
    2e23:	83 7d fc 01          	cmpl   $0x1,-0x4(%rbp)
    2e27:	74 02                	je     2e2b <_Z5part5v+0x4d>
    2e29:	eb c2                	jmp    2ded <_Z5part5v+0xf>
    2e2b:	90                   	nop
    2e2c:	90                   	nop
    2e2d:	5d                   	pop    %rbp
    2e2e:	c3                   	ret

0000000000002e2f <_Z5part6i>:
    2e2f:	f3 0f 1e fa          	endbr64
    2e33:	55                   	push   %rbp
    2e34:	48 89 e5             	mov    %rsp,%rbp
    2e37:	48 83 ec 10          	sub    $0x10,%rsp
    2e3b:	89 7d fc             	mov    %edi,-0x4(%rbp)
    2e3e:	8b 55 fc             	mov    -0x4(%rbp),%edx
    2e41:	89 d0                	mov    %edx,%eax
    2e43:	c1 f8 1f             	sar    $0x1f,%eax
    2e46:	c1 e8 1f             	shr    $0x1f,%eax
    2e49:	01 c2                	add    %eax,%edx
    2e4b:	83 e2 01             	and    $0x1,%edx
    2e4e:	29 c2                	sub    %eax,%edx
    2e50:	89 d0                	mov    %edx,%eax
    2e52:	85 c0                	test   %eax,%eax
    2e54:	74 07                	je     2e5d <_Z5part6i+0x2e>
    2e56:	83 f8 01             	cmp    $0x1,%eax
    2e59:	74 2f                	je     2e8a <_Z5part6i+0x5b>
    2e5b:	eb 5a                	jmp    2eb7 <_Z5part6i+0x88>
    2e5d:	48 8d 05 16 13 00 00 	lea    0x1316(%rip),%rax        # 417a <_IO_stdin_used+0x17a>
    2e64:	48 89 c6             	mov    %rax,%rsi
    2e67:	48 8d 05 d2 31 00 00 	lea    0x31d2(%rip),%rax        # 6040 <_ZSt4cout@GLIBCXX_3.4>
    2e6e:	48 89 c7             	mov    %rax,%rdi
    2e71:	e8 ca f5 ff ff       	call   2440 <_ZStlsISt11char_traitsIcEERSt13basic_ostreamIcT_ES5_PKc@plt>
    2e76:	48 8b 15 53 31 00 00 	mov    0x3153(%rip),%rdx        # 5fd0 <_ZSt4endlIcSt11char_traitsIcEERSt13basic_ostreamIT_T0_ES6_@GLIBCXX_3.4>
    2e7d:	48 89 d6             	mov    %rdx,%rsi
    2e80:	48 89 c7             	mov    %rax,%rdi
    2e83:	e8 c8 f5 ff ff       	call   2450 <_ZNSolsEPFRSoS_E@plt>
    2e88:	eb 59                	jmp    2ee3 <_Z5part6i+0xb4>
    2e8a:	48 8d 05 f5 12 00 00 	lea    0x12f5(%rip),%rax        # 4186 <_IO_stdin_used+0x186>
    2e91:	48 89 c6             	mov    %rax,%rsi
    2e94:	48 8d 05 a5 31 00 00 	lea    0x31a5(%rip),%rax        # 6040 <_ZSt4cout@GLIBCXX_3.4>
    2e9b:	48 89 c7             	mov    %rax,%rdi
    2e9e:	e8 9d f5 ff ff       	call   2440 <_ZStlsISt11char_traitsIcEERSt13basic_ostreamIcT_ES5_PKc@plt>
    2ea3:	48 8b 15 26 31 00 00 	mov    0x3126(%rip),%rdx        # 5fd0 <_ZSt4endlIcSt11char_traitsIcEERSt13basic_ostreamIT_T0_ES6_@GLIBCXX_3.4>
    2eaa:	48 89 d6             	mov    %rdx,%rsi
    2ead:	48 89 c7             	mov    %rax,%rdi
    2eb0:	e8 9b f5 ff ff       	call   2450 <_ZNSolsEPFRSoS_E@plt>
    2eb5:	eb 2c                	jmp    2ee3 <_Z5part6i+0xb4>
    2eb7:	48 8d 05 da 12 00 00 	lea    0x12da(%rip),%rax        # 4198 <_IO_stdin_used+0x198>
    2ebe:	48 89 c6             	mov    %rax,%rsi
    2ec1:	48 8d 05 78 31 00 00 	lea    0x3178(%rip),%rax        # 6040 <_ZSt4cout@GLIBCXX_3.4>
    2ec8:	48 89 c7             	mov    %rax,%rdi
    2ecb:	e8 70 f5 ff ff       	call   2440 <_ZStlsISt11char_traitsIcEERSt13basic_ostreamIcT_ES5_PKc@plt>
    2ed0:	48 8b 15 f9 30 00 00 	mov    0x30f9(%rip),%rdx        # 5fd0 <_ZSt4endlIcSt11char_traitsIcEERSt13basic_ostreamIT_T0_ES6_@GLIBCXX_3.4>
    2ed7:	48 89 d6             	mov    %rdx,%rsi
    2eda:	48 89 c7             	mov    %rax,%rdi
    2edd:	e8 6e f5 ff ff       	call   2450 <_ZNSolsEPFRSoS_E@plt>
    2ee2:	90                   	nop
    2ee3:	90                   	nop
    2ee4:	c9                   	leave
    2ee5:	c3                   	ret

0000000000002ee6 <main>:
    2ee6:	f3 0f 1e fa          	endbr64
    2eea:	55                   	push   %rbp
    2eeb:	48 89 e5             	mov    %rsp,%rbp
    2eee:	48 83 ec 40          	sub    $0x40,%rsp
    2ef2:	64 48 8b 04 25 28 00 	mov    %fs:0x28,%rax
    2ef9:	00 00 
    2efb:	48 89 45 f8          	mov    %rax,-0x8(%rbp)
    2eff:	31 c0                	xor    %eax,%eax
    2f01:	bf 28 00 00 00       	mov    $0x28,%edi
    2f06:	e8 e5 f3 ff ff       	call   22f0 <_Znam@plt>
    2f0b:	48 89 45 c8          	mov    %rax,-0x38(%rbp)
    2f0f:	c7 45 c4 00 00 00 00 	movl   $0x0,-0x3c(%rbp)
    2f16:	eb 7b                	jmp    2f93 <main+0xad>
    2f18:	8b 55 c4             	mov    -0x3c(%rbp),%edx
    2f1b:	89 d0                	mov    %edx,%eax
    2f1d:	c1 e0 04             	shl    $0x4,%eax
    2f20:	29 d0                	sub    %edx,%eax
    2f22:	48 63 d0             	movslq %eax,%rdx
    2f25:	48 69 d2 09 cb 3d 8d 	imul   $0xffffffff8d3dcb09,%rdx,%rdx
    2f2c:	48 c1 ea 20          	shr    $0x20,%rdx
    2f30:	01 c2                	add    %eax,%edx
    2f32:	c1 fa 04             	sar    $0x4,%edx
    2f35:	89 c1                	mov    %eax,%ecx
    2f37:	c1 f9 1f             	sar    $0x1f,%ecx
    2f3a:	29 ca                	sub    %ecx,%edx
    2f3c:	6b ca 1d             	imul   $0x1d,%edx,%ecx
    2f3f:	29 c8                	sub    %ecx,%eax
    2f41:	89 c2                	mov    %eax,%edx
    2f43:	8b 45 c4             	mov    -0x3c(%rbp),%eax
    2f46:	48 98                	cltq
    2f48:	89 54 85 d0          	mov    %edx,-0x30(%rbp,%rax,4)
    2f4c:	8b 45 c4             	mov    -0x3c(%rbp),%eax
    2f4f:	83 c0 0c             	add    $0xc,%eax
    2f52:	8b 55 c4             	mov    -0x3c(%rbp),%edx
    2f55:	48 63 d2             	movslq %edx,%rdx
    2f58:	48 8d 0c 95 00 00 00 	lea    0x0(,%rdx,4),%rcx
    2f5f:	00 
    2f60:	48 8b 55 c8          	mov    -0x38(%rbp),%rdx
    2f64:	48 8d 34 11          	lea    (%rcx,%rdx,1),%rsi
    2f68:	48 63 d0             	movslq %eax,%rdx
    2f6b:	48 69 d2 43 08 21 84 	imul   $0xffffffff84210843,%rdx,%rdx
    2f72:	48 c1 ea 20          	shr    $0x20,%rdx
    2f76:	01 c2                	add    %eax,%edx
    2f78:	c1 fa 04             	sar    $0x4,%edx
    2f7b:	89 c1                	mov    %eax,%ecx
    2f7d:	c1 f9 1f             	sar    $0x1f,%ecx
    2f80:	29 ca                	sub    %ecx,%edx
    2f82:	89 d1                	mov    %edx,%ecx
    2f84:	c1 e1 05             	shl    $0x5,%ecx
    2f87:	29 d1                	sub    %edx,%ecx
    2f89:	29 c8                	sub    %ecx,%eax
    2f8b:	89 c2                	mov    %eax,%edx
    2f8d:	89 16                	mov    %edx,(%rsi)
    2f8f:	83 45 c4 01          	addl   $0x1,-0x3c(%rbp)
    2f93:	83 7d c4 09          	cmpl   $0x9,-0x3c(%rbp)
    2f97:	0f 8e 7b ff ff ff    	jle    2f18 <main+0x32>
    2f9d:	48 83 7d c8 00       	cmpq   $0x0,-0x38(%rbp)
    2fa2:	74 0c                	je     2fb0 <main+0xca>
    2fa4:	48 8b 45 c8          	mov    -0x38(%rbp),%rax
    2fa8:	48 89 c7             	mov    %rax,%rdi
    2fab:	e8 00 f5 ff ff       	call   24b0 <_ZdaPv@plt>
    2fb0:	e8 4d f7 ff ff       	call   2702 <_Z5part1v>
    2fb5:	e8 9b f9 ff ff       	call   2955 <_Z5part2v>
    2fba:	e8 05 fc ff ff       	call   2bc4 <_Z5part3v>
    2fbf:	e8 ea fc ff ff       	call   2cae <_Z5part4v>
    2fc4:	e8 15 fe ff ff       	call   2dde <_Z5part5v>
    2fc9:	bf 0d 00 00 00       	mov    $0xd,%edi
    2fce:	e8 5c fe ff ff       	call   2e2f <_Z5part6i>
    2fd3:	b8 00 00 00 00       	mov    $0x0,%eax
    2fd8:	48 8b 55 f8          	mov    -0x8(%rbp),%rdx
    2fdc:	64 48 2b 14 25 28 00 	sub    %fs:0x28,%rdx
    2fe3:	00 00 
    2fe5:	74 05                	je     2fec <main+0x106>
    2fe7:	e8 a4 f4 ff ff       	call   2490 <__stack_chk_fail@plt>
    2fec:	c9                   	leave
    2fed:	c3                   	ret

0000000000002fee <_ZSt23__is_constant_evaluatedv>:
    2fee:	f3 0f 1e fa          	endbr64
    2ff2:	55                   	push   %rbp
    2ff3:	48 89 e5             	mov    %rsp,%rbp
    2ff6:	b8 00 00 00 00       	mov    $0x0,%eax
    2ffb:	5d                   	pop    %rbp
    2ffc:	c3                   	ret
    2ffd:	90                   	nop

0000000000002ffe <_ZNKSt6chrono8durationIlSt5ratioILl1ELl1000000000EEE5countEv>:
    2ffe:	f3 0f 1e fa          	endbr64
    3002:	55                   	push   %rbp
    3003:	48 89 e5             	mov    %rsp,%rbp
    3006:	48 89 7d f8          	mov    %rdi,-0x8(%rbp)
    300a:	48 8b 45 f8          	mov    -0x8(%rbp),%rax
    300e:	48 8b 00             	mov    (%rax),%rax
    3011:	5d                   	pop    %rbp
    3012:	c3                   	ret

0000000000003013 <_ZNSt6chrono3_V212system_clock9to_time_tERKNS_10time_pointIS1_NS_8durationIlSt5ratioILl1ELl1000000000EEEEEE>:
    3013:	f3 0f 1e fa          	endbr64
    3017:	55                   	push   %rbp
    3018:	48 89 e5             	mov    %rsp,%rbp
    301b:	48 83 ec 30          	sub    $0x30,%rsp
    301f:	48 89 7d d8          	mov    %rdi,-0x28(%rbp)
    3023:	64 48 8b 04 25 28 00 	mov    %fs:0x28,%rax
    302a:	00 00 
    302c:	48 89 45 f8          	mov    %rax,-0x8(%rbp)
    3030:	31 c0                	xor    %eax,%eax
    3032:	48 8b 45 d8          	mov    -0x28(%rbp),%rax
    3036:	48 89 c7             	mov    %rax,%rdi
    3039:	e8 d4 03 00 00       	call   3412 <_ZNKSt6chrono10time_pointINS_3_V212system_clockENS_8durationIlSt5ratioILl1ELl1000000000EEEEE16time_since_epochEv>
    303e:	48 89 45 e8          	mov    %rax,-0x18(%rbp)
    3042:	48 8d 45 e8          	lea    -0x18(%rbp),%rax
    3046:	48 89 c7             	mov    %rax,%rdi
    3049:	e8 d9 03 00 00       	call   3427 <_ZNSt6chrono13duration_castINS_8durationIlSt5ratioILl1ELl1EEEElS2_ILl1ELl1000000000EEEENSt9enable_ifIXsrNS_13__is_durationIT_EE5valueES8_E4typeERKNS1_IT0_T1_EE>
    304e:	48 89 45 f0          	mov    %rax,-0x10(%rbp)
    3052:	48 8d 45 f0          	lea    -0x10(%rbp),%rax
    3056:	48 89 c7             	mov    %rax,%rdi
    3059:	e8 e8 03 00 00       	call   3446 <_ZNKSt6chrono8durationIlSt5ratioILl1ELl1EEE5countEv>
    305e:	48 8b 55 f8          	mov    -0x8(%rbp),%rdx
    3062:	64 48 2b 14 25 28 00 	sub    %fs:0x28,%rdx
    3069:	00 00 
    306b:	74 05                	je     3072 <_ZNSt6chrono3_V212system_clock9to_time_tERKNS_10time_pointIS1_NS_8durationIlSt5ratioILl1ELl1000000000EEEEEE+0x5f>
    306d:	e8 1e f4 ff ff       	call   2490 <__stack_chk_fail@plt>
    3072:	c9                   	leave
    3073:	c3                   	ret

0000000000003074 <_ZNSt6chrono8durationIlSt5ratioILl1ELl1EEEC1IlvEERKT_>:
    3074:	f3 0f 1e fa          	endbr64
    3078:	55                   	push   %rbp
    3079:	48 89 e5             	mov    %rsp,%rbp
    307c:	48 89 7d f8          	mov    %rdi,-0x8(%rbp)
    3080:	48 89 75 f0          	mov    %rsi,-0x10(%rbp)
    3084:	48 8b 45 f0          	mov    -0x10(%rbp),%rax
    3088:	48 8b 10             	mov    (%rax),%rdx
    308b:	48 8b 45 f8          	mov    -0x8(%rbp),%rax
    308f:	48 89 10             	mov    %rdx,(%rax)
    3092:	90                   	nop
    3093:	5d                   	pop    %rbp
    3094:	c3                   	ret

0000000000003095 <_ZNSt11char_traitsIcE2ltERKcS2_>:
    3095:	f3 0f 1e fa          	endbr64
    3099:	55                   	push   %rbp
    309a:	48 89 e5             	mov    %rsp,%rbp
    309d:	48 89 7d f8          	mov    %rdi,-0x8(%rbp)
    30a1:	48 89 75 f0          	mov    %rsi,-0x10(%rbp)
    30a5:	48 8b 45 f8          	mov    -0x8(%rbp),%rax
    30a9:	0f b6 00             	movzbl (%rax),%eax
    30ac:	89 c2                	mov    %eax,%edx
    30ae:	48 8b 45 f0          	mov    -0x10(%rbp),%rax
    30b2:	0f b6 00             	movzbl (%rax),%eax
    30b5:	38 c2                	cmp    %al,%dl
    30b7:	0f 92 c0             	setb   %al
    30ba:	5d                   	pop    %rbp
    30bb:	c3                   	ret

00000000000030bc <_ZNSt11char_traitsIcE7compareEPKcS2_m>:
    30bc:	f3 0f 1e fa          	endbr64
    30c0:	55                   	push   %rbp
    30c1:	48 89 e5             	mov    %rsp,%rbp
    30c4:	48 83 ec 30          	sub    $0x30,%rsp
    30c8:	48 89 7d e8          	mov    %rdi,-0x18(%rbp)
    30cc:	48 89 75 e0          	mov    %rsi,-0x20(%rbp)
    30d0:	48 89 55 d8          	mov    %rdx,-0x28(%rbp)
    30d4:	48 83 7d d8 00       	cmpq   $0x0,-0x28(%rbp)
    30d9:	75 0a                	jne    30e5 <_ZNSt11char_traitsIcE7compareEPKcS2_m+0x29>
    30db:	b8 00 00 00 00       	mov    $0x0,%eax
    30e0:	e9 99 00 00 00       	jmp    317e <_ZNSt11char_traitsIcE7compareEPKcS2_m+0xc2>
    30e5:	e8 04 ff ff ff       	call   2fee <_ZSt23__is_constant_evaluatedv>
    30ea:	84 c0                	test   %al,%al
    30ec:	74 78                	je     3166 <_ZNSt11char_traitsIcE7compareEPKcS2_m+0xaa>
    30ee:	48 c7 45 f8 00 00 00 	movq   $0x0,-0x8(%rbp)
    30f5:	00 
    30f6:	eb 5d                	jmp    3155 <_ZNSt11char_traitsIcE7compareEPKcS2_m+0x99>
    30f8:	48 8b 55 e0          	mov    -0x20(%rbp),%rdx
    30fc:	48 8b 45 f8          	mov    -0x8(%rbp),%rax
    3100:	48 01 c2             	add    %rax,%rdx
    3103:	48 8b 4d e8          	mov    -0x18(%rbp),%rcx
    3107:	48 8b 45 f8          	mov    -0x8(%rbp),%rax
    310b:	48 01 c8             	add    %rcx,%rax
    310e:	48 89 d6             	mov    %rdx,%rsi
    3111:	48 89 c7             	mov    %rax,%rdi
    3114:	e8 7c ff ff ff       	call   3095 <_ZNSt11char_traitsIcE2ltERKcS2_>
    3119:	84 c0                	test   %al,%al
    311b:	74 07                	je     3124 <_ZNSt11char_traitsIcE7compareEPKcS2_m+0x68>
    311d:	b8 ff ff ff ff       	mov    $0xffffffff,%eax
    3122:	eb 5a                	jmp    317e <_ZNSt11char_traitsIcE7compareEPKcS2_m+0xc2>
    3124:	48 8b 55 e8          	mov    -0x18(%rbp),%rdx
    3128:	48 8b 45 f8          	mov    -0x8(%rbp),%rax
    312c:	48 01 c2             	add    %rax,%rdx
    312f:	48 8b 4d e0          	mov    -0x20(%rbp),%rcx
    3133:	48 8b 45 f8          	mov    -0x8(%rbp),%rax
    3137:	48 01 c8             	add    %rcx,%rax
    313a:	48 89 d6             	mov    %rdx,%rsi
    313d:	48 89 c7             	mov    %rax,%rdi
    3140:	e8 50 ff ff ff       	call   3095 <_ZNSt11char_traitsIcE2ltERKcS2_>
    3145:	84 c0                	test   %al,%al
    3147:	74 07                	je     3150 <_ZNSt11char_traitsIcE7compareEPKcS2_m+0x94>
    3149:	b8 01 00 00 00       	mov    $0x1,%eax
    314e:	eb 2e                	jmp    317e <_ZNSt11char_traitsIcE7compareEPKcS2_m+0xc2>
    3150:	48 83 45 f8 01       	addq   $0x1,-0x8(%rbp)
    3155:	48 8b 45 f8          	mov    -0x8(%rbp),%rax
    3159:	48 3b 45 d8          	cmp    -0x28(%rbp),%rax
    315d:	72 99                	jb     30f8 <_ZNSt11char_traitsIcE7compareEPKcS2_m+0x3c>
    315f:	b8 00 00 00 00       	mov    $0x0,%eax
    3164:	eb 18                	jmp    317e <_ZNSt11char_traitsIcE7compareEPKcS2_m+0xc2>
    3166:	48 8b 55 d8          	mov    -0x28(%rbp),%rdx
    316a:	48 8b 4d e0          	mov    -0x20(%rbp),%rcx
    316e:	48 8b 45 e8          	mov    -0x18(%rbp),%rax
    3172:	48 89 ce             	mov    %rcx,%rsi
    3175:	48 89 c7             	mov    %rax,%rdi
    3178:	e8 13 f2 ff ff       	call   2390 <memcmp@plt>
    317d:	90                   	nop
    317e:	c9                   	leave
    317f:	c3                   	ret

0000000000003180 <_ZNSt11char_traitsIcE6lengthEPKc>:
    3180:	f3 0f 1e fa          	endbr64
    3184:	55                   	push   %rbp
    3185:	48 89 e5             	mov    %rsp,%rbp
    3188:	48 83 ec 10          	sub    $0x10,%rsp
    318c:	48 89 7d f8          	mov    %rdi,-0x8(%rbp)
    3190:	e8 59 fe ff ff       	call   2fee <_ZSt23__is_constant_evaluatedv>
    3195:	84 c0                	test   %al,%al
    3197:	74 0e                	je     31a7 <_ZNSt11char_traitsIcE6lengthEPKc+0x27>
    3199:	48 8b 45 f8          	mov    -0x8(%rbp),%rax
    319d:	48 89 c7             	mov    %rax,%rdi
    31a0:	e8 b7 02 00 00       	call   345c <_ZN9__gnu_cxx11char_traitsIcE6lengthEPKc>
    31a5:	eb 0d                	jmp    31b4 <_ZNSt11char_traitsIcE6lengthEPKc+0x34>
    31a7:	48 8b 45 f8          	mov    -0x8(%rbp),%rax
    31ab:	48 89 c7             	mov    %rax,%rdi
    31ae:	e8 cd f1 ff ff       	call   2380 <strlen@plt>
    31b3:	90                   	nop
    31b4:	c9                   	leave
    31b5:	c3                   	ret

00000000000031b6 <_ZNSt7__cxx114stoiERKNS_12basic_stringIcSt11char_traitsIcESaIcEEEPmi>:
    31b6:	f3 0f 1e fa          	endbr64
    31ba:	55                   	push   %rbp
    31bb:	48 89 e5             	mov    %rsp,%rbp
    31be:	48 83 ec 20          	sub    $0x20,%rsp
    31c2:	48 89 7d f8          	mov    %rdi,-0x8(%rbp)
    31c6:	48 89 75 f0          	mov    %rsi,-0x10(%rbp)
    31ca:	89 55 ec             	mov    %edx,-0x14(%rbp)
    31cd:	48 8b 45 f8          	mov    -0x8(%rbp),%rax
    31d1:	48 89 c7             	mov    %rax,%rdi
    31d4:	e8 97 f1 ff ff       	call   2370 <_ZNKSt7__cxx1112basic_stringIcSt11char_traitsIcESaIcEE5c_strEv@plt>
    31d9:	48 89 c2             	mov    %rax,%rdx
    31dc:	8b 4d ec             	mov    -0x14(%rbp),%ecx
    31df:	48 8b 45 f0          	mov    -0x10(%rbp),%rax
    31e3:	41 89 c8             	mov    %ecx,%r8d
    31e6:	48 89 c1             	mov    %rax,%rcx
    31e9:	48 8d 05 18 0e 00 00 	lea    0xe18(%rip),%rax        # 4008 <_IO_stdin_used+0x8>
    31f0:	48 89 c6             	mov    %rax,%rsi
    31f3:	48 8b 05 fe 2d 00 00 	mov    0x2dfe(%rip),%rax        # 5ff8 <__isoc23_strtol@GLIBC_2.38>
    31fa:	48 89 c7             	mov    %rax,%rdi
    31fd:	e8 54 03 00 00       	call   3556 <_ZN9__gnu_cxx6__stoaIlicJiEEET0_PFT_PKT1_PPS3_DpT2_EPKcS5_PmS9_>
    3202:	c9                   	leave
    3203:	c3                   	ret

0000000000003204 <_ZStanSt13_Ios_FmtflagsS_>:
    3204:	f3 0f 1e fa          	endbr64
    3208:	55                   	push   %rbp
    3209:	48 89 e5             	mov    %rsp,%rbp
    320c:	89 7d fc             	mov    %edi,-0x4(%rbp)
    320f:	89 75 f8             	mov    %esi,-0x8(%rbp)
    3212:	8b 45 fc             	mov    -0x4(%rbp),%eax
    3215:	23 45 f8             	and    -0x8(%rbp),%eax
    3218:	5d                   	pop    %rbp
    3219:	c3                   	ret

000000000000321a <_ZStorSt13_Ios_FmtflagsS_>:
    321a:	f3 0f 1e fa          	endbr64
    321e:	55                   	push   %rbp
    321f:	48 89 e5             	mov    %rsp,%rbp
    3222:	89 7d fc             	mov    %edi,-0x4(%rbp)
    3225:	89 75 f8             	mov    %esi,-0x8(%rbp)
    3228:	8b 45 fc             	mov    -0x4(%rbp),%eax
    322b:	0b 45 f8             	or     -0x8(%rbp),%eax
    322e:	5d                   	pop    %rbp
    322f:	c3                   	ret

0000000000003230 <_ZStcoSt13_Ios_Fmtflags>:
    3230:	f3 0f 1e fa          	endbr64
    3234:	55                   	push   %rbp
    3235:	48 89 e5             	mov    %rsp,%rbp
    3238:	89 7d fc             	mov    %edi,-0x4(%rbp)
    323b:	8b 45 fc             	mov    -0x4(%rbp),%eax
    323e:	f7 d0                	not    %eax
    3240:	5d                   	pop    %rbp
    3241:	c3                   	ret

0000000000003242 <_ZStoRRSt13_Ios_FmtflagsS_>:
    3242:	f3 0f 1e fa          	endbr64
    3246:	55                   	push   %rbp
    3247:	48 89 e5             	mov    %rsp,%rbp
    324a:	48 83 ec 10          	sub    $0x10,%rsp
    324e:	48 89 7d f8          	mov    %rdi,-0x8(%rbp)
    3252:	89 75 f4             	mov    %esi,-0xc(%rbp)
    3255:	48 8b 45 f8          	mov    -0x8(%rbp),%rax
    3259:	8b 00                	mov    (%rax),%eax
    325b:	8b 55 f4             	mov    -0xc(%rbp),%edx
    325e:	89 d6                	mov    %edx,%esi
    3260:	89 c7                	mov    %eax,%edi
    3262:	e8 b3 ff ff ff       	call   321a <_ZStorSt13_Ios_FmtflagsS_>
    3267:	48 8b 55 f8          	mov    -0x8(%rbp),%rdx
    326b:	89 02                	mov    %eax,(%rdx)
    326d:	48 8b 45 f8          	mov    -0x8(%rbp),%rax
    3271:	c9                   	leave
    3272:	c3                   	ret

0000000000003273 <_ZStaNRSt13_Ios_FmtflagsS_>:
    3273:	f3 0f 1e fa          	endbr64
    3277:	55                   	push   %rbp
    3278:	48 89 e5             	mov    %rsp,%rbp
    327b:	48 83 ec 10          	sub    $0x10,%rsp
    327f:	48 89 7d f8          	mov    %rdi,-0x8(%rbp)
    3283:	89 75 f4             	mov    %esi,-0xc(%rbp)
    3286:	48 8b 45 f8          	mov    -0x8(%rbp),%rax
    328a:	8b 00                	mov    (%rax),%eax
    328c:	8b 55 f4             	mov    -0xc(%rbp),%edx
    328f:	89 d6                	mov    %edx,%esi
    3291:	89 c7                	mov    %eax,%edi
    3293:	e8 6c ff ff ff       	call   3204 <_ZStanSt13_Ios_FmtflagsS_>
    3298:	48 8b 55 f8          	mov    -0x8(%rbp),%rdx
    329c:	89 02                	mov    %eax,(%rdx)
    329e:	48 8b 45 f8          	mov    -0x8(%rbp),%rax
    32a2:	c9                   	leave
    32a3:	c3                   	ret

00000000000032a4 <_ZNSt8ios_base4setfESt13_Ios_Fmtflags>:
    32a4:	f3 0f 1e fa          	endbr64
    32a8:	55                   	push   %rbp
    32a9:	48 89 e5             	mov    %rsp,%rbp
    32ac:	48 83 ec 20          	sub    $0x20,%rsp
    32b0:	48 89 7d e8          	mov    %rdi,-0x18(%rbp)
    32b4:	89 75 e4             	mov    %esi,-0x1c(%rbp)
    32b7:	48 8b 45 e8          	mov    -0x18(%rbp),%rax
    32bb:	8b 40 18             	mov    0x18(%rax),%eax
    32be:	89 45 fc             	mov    %eax,-0x4(%rbp)
    32c1:	48 8b 45 e8          	mov    -0x18(%rbp),%rax
    32c5:	48 8d 50 18          	lea    0x18(%rax),%rdx
    32c9:	8b 45 e4             	mov    -0x1c(%rbp),%eax
    32cc:	89 c6                	mov    %eax,%esi
    32ce:	48 89 d7             	mov    %rdx,%rdi
    32d1:	e8 6c ff ff ff       	call   3242 <_ZStoRRSt13_Ios_FmtflagsS_>
    32d6:	8b 45 fc             	mov    -0x4(%rbp),%eax
    32d9:	c9                   	leave
    32da:	c3                   	ret
    32db:	90                   	nop

00000000000032dc <_ZNSt8ios_base6unsetfESt13_Ios_Fmtflags>:
    32dc:	f3 0f 1e fa          	endbr64
    32e0:	55                   	push   %rbp
    32e1:	48 89 e5             	mov    %rsp,%rbp
    32e4:	48 83 ec 10          	sub    $0x10,%rsp
    32e8:	48 89 7d f8          	mov    %rdi,-0x8(%rbp)
    32ec:	89 75 f4             	mov    %esi,-0xc(%rbp)
    32ef:	8b 45 f4             	mov    -0xc(%rbp),%eax
    32f2:	89 c7                	mov    %eax,%edi
    32f4:	e8 37 ff ff ff       	call   3230 <_ZStcoSt13_Ios_Fmtflags>
    32f9:	89 c2                	mov    %eax,%edx
    32fb:	48 8b 45 f8          	mov    -0x8(%rbp),%rax
    32ff:	48 83 c0 18          	add    $0x18,%rax
    3303:	89 d6                	mov    %edx,%esi
    3305:	48 89 c7             	mov    %rax,%rdi
    3308:	e8 66 ff ff ff       	call   3273 <_ZStaNRSt13_Ios_FmtflagsS_>
    330d:	90                   	nop
    330e:	c9                   	leave
    330f:	c3                   	ret

0000000000003310 <_ZSt9boolalphaRSt8ios_base>:
    3310:	f3 0f 1e fa          	endbr64
    3314:	55                   	push   %rbp
    3315:	48 89 e5             	mov    %rsp,%rbp
    3318:	48 83 ec 10          	sub    $0x10,%rsp
    331c:	48 89 7d f8          	mov    %rdi,-0x8(%rbp)
    3320:	48 8b 45 f8          	mov    -0x8(%rbp),%rax
    3324:	be 01 00 00 00       	mov    $0x1,%esi
    3329:	48 89 c7             	mov    %rax,%rdi
    332c:	e8 73 ff ff ff       	call   32a4 <_ZNSt8ios_base4setfESt13_Ios_Fmtflags>
    3331:	48 8b 45 f8          	mov    -0x8(%rbp),%rax
    3335:	c9                   	leave
    3336:	c3                   	ret

0000000000003337 <_ZSt11noboolalphaRSt8ios_base>:
    3337:	f3 0f 1e fa          	endbr64
    333b:	55                   	push   %rbp
    333c:	48 89 e5             	mov    %rsp,%rbp
    333f:	48 83 ec 10          	sub    $0x10,%rsp
    3343:	48 89 7d f8          	mov    %rdi,-0x8(%rbp)
    3347:	48 8b 45 f8          	mov    -0x8(%rbp),%rax
    334b:	be 01 00 00 00       	mov    $0x1,%esi
    3350:	48 89 c7             	mov    %rax,%rdi
    3353:	e8 84 ff ff ff       	call   32dc <_ZNSt8ios_base6unsetfESt13_Ios_Fmtflags>
    3358:	48 8b 45 f8          	mov    -0x8(%rbp),%rax
    335c:	c9                   	leave
    335d:	c3                   	ret

000000000000335e <_ZN6CircleC1Ed>:
    335e:	f3 0f 1e fa          	endbr64
    3362:	55                   	push   %rbp
    3363:	48 89 e5             	mov    %rsp,%rbp
    3366:	48 89 7d f8          	mov    %rdi,-0x8(%rbp)
    336a:	f2 0f 11 45 f0       	movsd  %xmm0,-0x10(%rbp)
    336f:	48 8b 45 f8          	mov    -0x8(%rbp),%rax
    3373:	f2 0f 10 45 f0       	movsd  -0x10(%rbp),%xmm0
    3378:	f2 0f 11 00          	movsd  %xmm0,(%rax)
    337c:	90                   	nop
    337d:	5d                   	pop    %rbp
    337e:	c3                   	ret
    337f:	90                   	nop

0000000000003380 <_ZN6Circle4areaEv>:
    3380:	f3 0f 1e fa          	endbr64
    3384:	55                   	push   %rbp
    3385:	48 89 e5             	mov    %rsp,%rbp
    3388:	48 83 ec 10          	sub    $0x10,%rsp
    338c:	48 89 7d f8          	mov    %rdi,-0x8(%rbp)
    3390:	48 8b 45 f8          	mov    -0x8(%rbp),%rax
    3394:	48 8b 00             	mov    (%rax),%rax
    3397:	bf 02 00 00 00       	mov    $0x2,%edi
    339c:	66 48 0f 6e c0       	movq   %rax,%xmm0
    33a1:	e8 26 03 00 00       	call   36cc <_ZSt3powIdiEN9__gnu_cxx11__promote_2IDTplcvNS1_IT_XsrSt12__is_integerIS2_E7__valueEE6__typeELi0EcvNS1_IT0_XsrS3_IS7_E7__valueEE6__typeELi0EEXsrS3_ISB_E7__valueEE6__typeES2_S7_>
    33a6:	f2 0f 10 0d 5a 0e 00 	movsd  0xe5a(%rip),%xmm1        # 4208 <_ZSt12__is_ratio_vISt5ratioILl1000000000ELl1EEE+0x1>
    33ad:	00 
    33ae:	f2 0f 59 c1          	mulsd  %xmm1,%xmm0
    33b2:	c9                   	leave
    33b3:	c3                   	ret

00000000000033b4 <_ZN6Circle13circumferenceEv>:
    33b4:	f3 0f 1e fa          	endbr64
    33b8:	55                   	push   %rbp
    33b9:	48 89 e5             	mov    %rsp,%rbp
    33bc:	48 89 7d f8          	mov    %rdi,-0x8(%rbp)
    33c0:	48 8b 45 f8          	mov    -0x8(%rbp),%rax
    33c4:	f2 0f 10 08          	movsd  (%rax),%xmm1
    33c8:	f2 0f 10 05 40 0e 00 	movsd  0xe40(%rip),%xmm0        # 4210 <_ZSt12__is_ratio_vISt5ratioILl1000000000ELl1EEE+0x9>
    33cf:	00 
    33d0:	f2 0f 59 c1          	mulsd  %xmm1,%xmm0
    33d4:	5d                   	pop    %rbp
    33d5:	c3                   	ret

00000000000033d6 <_ZN6Circle8diameterEv>:
    33d6:	f3 0f 1e fa          	endbr64
    33da:	55                   	push   %rbp
    33db:	48 89 e5             	mov    %rsp,%rbp
    33de:	48 89 7d f8          	mov    %rdi,-0x8(%rbp)
    33e2:	48 8b 45 f8          	mov    -0x8(%rbp),%rax
    33e6:	f2 0f 10 00          	movsd  (%rax),%xmm0
    33ea:	f2 0f 58 c0          	addsd  %xmm0,%xmm0
    33ee:	5d                   	pop    %rbp
    33ef:	c3                   	ret

00000000000033f0 <_ZN6Circle13change_radiusEd>:
    33f0:	f3 0f 1e fa          	endbr64
    33f4:	55                   	push   %rbp
    33f5:	48 89 e5             	mov    %rsp,%rbp
    33f8:	48 89 7d f8          	mov    %rdi,-0x8(%rbp)
    33fc:	f2 0f 11 45 f0       	movsd  %xmm0,-0x10(%rbp)
    3401:	48 8b 45 f8          	mov    -0x8(%rbp),%rax
    3405:	f2 0f 10 45 f0       	movsd  -0x10(%rbp),%xmm0
    340a:	f2 0f 11 00          	movsd  %xmm0,(%rax)
    340e:	90                   	nop
    340f:	5d                   	pop    %rbp
    3410:	c3                   	ret
    3411:	90                   	nop

0000000000003412 <_ZNKSt6chrono10time_pointINS_3_V212system_clockENS_8durationIlSt5ratioILl1ELl1000000000EEEEE16time_since_epochEv>:
    3412:	f3 0f 1e fa          	endbr64
    3416:	55                   	push   %rbp
    3417:	48 89 e5             	mov    %rsp,%rbp
    341a:	48 89 7d f8          	mov    %rdi,-0x8(%rbp)
    341e:	48 8b 45 f8          	mov    -0x8(%rbp),%rax
    3422:	48 8b 00             	mov    (%rax),%rax
    3425:	5d                   	pop    %rbp
    3426:	c3                   	ret

0000000000003427 <_ZNSt6chrono13duration_castINS_8durationIlSt5ratioILl1ELl1EEEElS2_ILl1ELl1000000000EEEENSt9enable_ifIXsrNS_13__is_durationIT_EE5valueES8_E4typeERKNS1_IT0_T1_EE>:
    3427:	f3 0f 1e fa          	endbr64
    342b:	55                   	push   %rbp
    342c:	48 89 e5             	mov    %rsp,%rbp
    342f:	48 83 ec 10          	sub    $0x10,%rsp
    3433:	48 89 7d f8          	mov    %rdi,-0x8(%rbp)
    3437:	48 8b 45 f8          	mov    -0x8(%rbp),%rax
    343b:	48 89 c7             	mov    %rax,%rdi
    343e:	e8 8f 03 00 00       	call   37d2 <_ZNSt6chrono20__duration_cast_implINS_8durationIlSt5ratioILl1ELl1EEEES2_ILl1ELl1000000000EElLb1ELb0EE6__castIlS5_EES4_RKNS1_IT_T0_EE>
    3443:	c9                   	leave
    3444:	c3                   	ret
    3445:	90                   	nop

0000000000003446 <_ZNKSt6chrono8durationIlSt5ratioILl1ELl1EEE5countEv>:
    3446:	f3 0f 1e fa          	endbr64
    344a:	55                   	push   %rbp
    344b:	48 89 e5             	mov    %rsp,%rbp
    344e:	48 89 7d f8          	mov    %rdi,-0x8(%rbp)
    3452:	48 8b 45 f8          	mov    -0x8(%rbp),%rax
    3456:	48 8b 00             	mov    (%rax),%rax
    3459:	5d                   	pop    %rbp
    345a:	c3                   	ret
    345b:	90                   	nop

000000000000345c <_ZN9__gnu_cxx11char_traitsIcE6lengthEPKc>:
    345c:	f3 0f 1e fa          	endbr64
    3460:	55                   	push   %rbp
    3461:	48 89 e5             	mov    %rsp,%rbp
    3464:	48 83 ec 30          	sub    $0x30,%rsp
    3468:	48 89 7d d8          	mov    %rdi,-0x28(%rbp)
    346c:	64 48 8b 04 25 28 00 	mov    %fs:0x28,%rax
    3473:	00 00 
    3475:	48 89 45 f8          	mov    %rax,-0x8(%rbp)
    3479:	31 c0                	xor    %eax,%eax
    347b:	48 c7 45 f0 00 00 00 	movq   $0x0,-0x10(%rbp)
    3482:	00 
    3483:	eb 05                	jmp    348a <_ZN9__gnu_cxx11char_traitsIcE6lengthEPKc+0x2e>
    3485:	48 83 45 f0 01       	addq   $0x1,-0x10(%rbp)
    348a:	c6 45 ef 00          	movb   $0x0,-0x11(%rbp)
    348e:	48 8b 55 d8          	mov    -0x28(%rbp),%rdx
    3492:	48 8b 45 f0          	mov    -0x10(%rbp),%rax
    3496:	48 01 c2             	add    %rax,%rdx
    3499:	48 8d 45 ef          	lea    -0x11(%rbp),%rax
    349d:	48 89 c6             	mov    %rax,%rsi
    34a0:	48 89 d7             	mov    %rdx,%rdi
    34a3:	e8 aa 03 00 00       	call   3852 <_ZN9__gnu_cxx11char_traitsIcE2eqERKcS3_>
    34a8:	83 f0 01             	xor    $0x1,%eax
    34ab:	84 c0                	test   %al,%al
    34ad:	75 d6                	jne    3485 <_ZN9__gnu_cxx11char_traitsIcE6lengthEPKc+0x29>
    34af:	48 8b 45 f0          	mov    -0x10(%rbp),%rax
    34b3:	48 8b 55 f8          	mov    -0x8(%rbp),%rdx
    34b7:	64 48 2b 14 25 28 00 	sub    %fs:0x28,%rdx
    34be:	00 00 
    34c0:	74 05                	je     34c7 <_ZN9__gnu_cxx11char_traitsIcE6lengthEPKc+0x6b>
    34c2:	e8 c9 ef ff ff       	call   2490 <__stack_chk_fail@plt>
    34c7:	c9                   	leave
    34c8:	c3                   	ret
    34c9:	90                   	nop

00000000000034ca <_ZZN9__gnu_cxx6__stoaIlicJiEEET0_PFT_PKT1_PPS3_DpT2_EPKcS5_PmS9_EN11_Save_errnoC1Ev>:
    34ca:	f3 0f 1e fa          	endbr64
    34ce:	55                   	push   %rbp
    34cf:	48 89 e5             	mov    %rsp,%rbp
    34d2:	48 83 ec 10          	sub    $0x10,%rsp
    34d6:	48 89 7d f8          	mov    %rdi,-0x8(%rbp)
    34da:	e8 21 ee ff ff       	call   2300 <__errno_location@plt>
    34df:	8b 10                	mov    (%rax),%edx
    34e1:	48 8b 45 f8          	mov    -0x8(%rbp),%rax
    34e5:	89 10                	mov    %edx,(%rax)
    34e7:	e8 14 ee ff ff       	call   2300 <__errno_location@plt>
    34ec:	c7 00 00 00 00 00    	movl   $0x0,(%rax)
    34f2:	90                   	nop
    34f3:	c9                   	leave
    34f4:	c3                   	ret
    34f5:	90                   	nop

00000000000034f6 <_ZZN9__gnu_cxx6__stoaIlicJiEEET0_PFT_PKT1_PPS3_DpT2_EPKcS5_PmS9_EN11_Save_errnoD1Ev>:
    34f6:	f3 0f 1e fa          	endbr64
    34fa:	55                   	push   %rbp
    34fb:	48 89 e5             	mov    %rsp,%rbp
    34fe:	48 83 ec 10          	sub    $0x10,%rsp
    3502:	48 89 7d f8          	mov    %rdi,-0x8(%rbp)
    3506:	e8 f5 ed ff ff       	call   2300 <__errno_location@plt>
    350b:	8b 00                	mov    (%rax),%eax
    350d:	85 c0                	test   %eax,%eax
    350f:	75 0d                	jne    351e <_ZZN9__gnu_cxx6__stoaIlicJiEEET0_PFT_PKT1_PPS3_DpT2_EPKcS5_PmS9_EN11_Save_errnoD1Ev+0x28>
    3511:	e8 ea ed ff ff       	call   2300 <__errno_location@plt>
    3516:	48 8b 55 f8          	mov    -0x8(%rbp),%rdx
    351a:	8b 12                	mov    (%rdx),%edx
    351c:	89 10                	mov    %edx,(%rax)
    351e:	90                   	nop
    351f:	c9                   	leave
    3520:	c3                   	ret

0000000000003521 <_ZZN9__gnu_cxx6__stoaIlicJiEEET0_PFT_PKT1_PPS3_DpT2_EPKcS5_PmS9_EN10_Range_chk6_S_chkElSt17integral_constantIbLb1EE>:
    3521:	f3 0f 1e fa          	endbr64
    3525:	55                   	push   %rbp
    3526:	48 89 e5             	mov    %rsp,%rbp
    3529:	48 89 7d f8          	mov    %rdi,-0x8(%rbp)
    352d:	48 b8 ff ff ff 7f ff 	movabs $0xffffffff7fffffff,%rax
    3534:	ff ff ff 
    3537:	48 39 45 f8          	cmp    %rax,-0x8(%rbp)
    353b:	7e 0b                	jle    3548 <_ZZN9__gnu_cxx6__stoaIlicJiEEET0_PFT_PKT1_PPS3_DpT2_EPKcS5_PmS9_EN10_Range_chk6_S_chkElSt17integral_constantIbLb1EE+0x27>
    353d:	b8 00 00 00 80       	mov    $0x80000000,%eax
    3542:	48 39 45 f8          	cmp    %rax,-0x8(%rbp)
    3546:	7c 07                	jl     354f <_ZZN9__gnu_cxx6__stoaIlicJiEEET0_PFT_PKT1_PPS3_DpT2_EPKcS5_PmS9_EN10_Range_chk6_S_chkElSt17integral_constantIbLb1EE+0x2e>
    3548:	b8 01 00 00 00       	mov    $0x1,%eax
    354d:	eb 05                	jmp    3554 <_ZZN9__gnu_cxx6__stoaIlicJiEEET0_PFT_PKT1_PPS3_DpT2_EPKcS5_PmS9_EN10_Range_chk6_S_chkElSt17integral_constantIbLb1EE+0x33>
    354f:	b8 00 00 00 00       	mov    $0x0,%eax
    3554:	5d                   	pop    %rbp
    3555:	c3                   	ret

0000000000003556 <_ZN9__gnu_cxx6__stoaIlicJiEEET0_PFT_PKT1_PPS3_DpT2_EPKcS5_PmS9_>:
    3556:	f3 0f 1e fa          	endbr64
    355a:	55                   	push   %rbp
    355b:	48 89 e5             	mov    %rsp,%rbp
    355e:	53                   	push   %rbx
    355f:	48 83 ec 68          	sub    $0x68,%rsp
    3563:	48 89 7d b8          	mov    %rdi,-0x48(%rbp)
    3567:	48 89 75 b0          	mov    %rsi,-0x50(%rbp)
    356b:	48 89 55 a8          	mov    %rdx,-0x58(%rbp)
    356f:	48 89 4d a0          	mov    %rcx,-0x60(%rbp)
    3573:	44 89 45 9c          	mov    %r8d,-0x64(%rbp)
    3577:	64 48 8b 04 25 28 00 	mov    %fs:0x28,%rax
    357e:	00 00 
    3580:	48 89 45 e8          	mov    %rax,-0x18(%rbp)
    3584:	31 c0                	xor    %eax,%eax
    3586:	48 8d 45 d0          	lea    -0x30(%rbp),%rax
    358a:	48 89 c7             	mov    %rax,%rdi
    358d:	e8 38 ff ff ff       	call   34ca <_ZZN9__gnu_cxx6__stoaIlicJiEEET0_PFT_PKT1_PPS3_DpT2_EPKcS5_PmS9_EN11_Save_errnoC1Ev>
    3592:	4c 8b 45 b8          	mov    -0x48(%rbp),%r8
    3596:	8b 55 9c             	mov    -0x64(%rbp),%edx
    3599:	48 8d 4d d8          	lea    -0x28(%rbp),%rcx
    359d:	48 8b 45 a8          	mov    -0x58(%rbp),%rax
    35a1:	48 89 ce             	mov    %rcx,%rsi
    35a4:	48 89 c7             	mov    %rax,%rdi
    35a7:	41 ff d0             	call   *%r8
    35aa:	48 89 45 e0          	mov    %rax,-0x20(%rbp)
    35ae:	48 8b 45 d8          	mov    -0x28(%rbp),%rax
    35b2:	48 39 45 a8          	cmp    %rax,-0x58(%rbp)
    35b6:	75 20                	jne    35d8 <_ZN9__gnu_cxx6__stoaIlicJiEEET0_PFT_PKT1_PPS3_DpT2_EPKcS5_PmS9_+0x82>
    35b8:	48 8b 45 e8          	mov    -0x18(%rbp),%rax
    35bc:	64 48 2b 04 25 28 00 	sub    %fs:0x28,%rax
    35c3:	00 00 
    35c5:	74 05                	je     35cc <_ZN9__gnu_cxx6__stoaIlicJiEEET0_PFT_PKT1_PPS3_DpT2_EPKcS5_PmS9_+0x76>
    35c7:	e8 c4 ee ff ff       	call   2490 <__stack_chk_fail@plt>
    35cc:	48 8b 45 b0          	mov    -0x50(%rbp),%rax
    35d0:	48 89 c7             	mov    %rax,%rdi
    35d3:	e8 c8 ed ff ff       	call   23a0 <_ZSt24__throw_invalid_argumentPKc@plt>
    35d8:	e8 23 ed ff ff       	call   2300 <__errno_location@plt>
    35dd:	8b 00                	mov    (%rax),%eax
    35df:	83 f8 22             	cmp    $0x22,%eax
    35e2:	74 10                	je     35f4 <_ZN9__gnu_cxx6__stoaIlicJiEEET0_PFT_PKT1_PPS3_DpT2_EPKcS5_PmS9_+0x9e>
    35e4:	48 8b 45 e0          	mov    -0x20(%rbp),%rax
    35e8:	48 89 c7             	mov    %rax,%rdi
    35eb:	e8 31 ff ff ff       	call   3521 <_ZZN9__gnu_cxx6__stoaIlicJiEEET0_PFT_PKT1_PPS3_DpT2_EPKcS5_PmS9_EN10_Range_chk6_S_chkElSt17integral_constantIbLb1EE>
    35f0:	84 c0                	test   %al,%al
    35f2:	74 07                	je     35fb <_ZN9__gnu_cxx6__stoaIlicJiEEET0_PFT_PKT1_PPS3_DpT2_EPKcS5_PmS9_+0xa5>
    35f4:	b8 01 00 00 00       	mov    $0x1,%eax
    35f9:	eb 05                	jmp    3600 <_ZN9__gnu_cxx6__stoaIlicJiEEET0_PFT_PKT1_PPS3_DpT2_EPKcS5_PmS9_+0xaa>
    35fb:	b8 00 00 00 00       	mov    $0x0,%eax
    3600:	84 c0                	test   %al,%al
    3602:	74 20                	je     3624 <_ZN9__gnu_cxx6__stoaIlicJiEEET0_PFT_PKT1_PPS3_DpT2_EPKcS5_PmS9_+0xce>
    3604:	48 8b 45 e8          	mov    -0x18(%rbp),%rax
    3608:	64 48 2b 04 25 28 00 	sub    %fs:0x28,%rax
    360f:	00 00 
    3611:	74 05                	je     3618 <_ZN9__gnu_cxx6__stoaIlicJiEEET0_PFT_PKT1_PPS3_DpT2_EPKcS5_PmS9_+0xc2>
    3613:	e8 78 ee ff ff       	call   2490 <__stack_chk_fail@plt>
    3618:	48 8b 45 b0          	mov    -0x50(%rbp),%rax
    361c:	48 89 c7             	mov    %rax,%rdi
    361f:	e8 bc ee ff ff       	call   24e0 <_ZSt20__throw_out_of_rangePKc@plt>
    3624:	48 8b 45 e0          	mov    -0x20(%rbp),%rax
    3628:	89 45 d4             	mov    %eax,-0x2c(%rbp)
    362b:	48 83 7d a0 00       	cmpq   $0x0,-0x60(%rbp)
    3630:	74 12                	je     3644 <_ZN9__gnu_cxx6__stoaIlicJiEEET0_PFT_PKT1_PPS3_DpT2_EPKcS5_PmS9_+0xee>
    3632:	48 8b 45 d8          	mov    -0x28(%rbp),%rax
    3636:	48 2b 45 a8          	sub    -0x58(%rbp),%rax
    363a:	48 89 c2             	mov    %rax,%rdx
    363d:	48 8b 45 a0          	mov    -0x60(%rbp),%rax
    3641:	48 89 10             	mov    %rdx,(%rax)
    3644:	8b 5d d4             	mov    -0x2c(%rbp),%ebx
    3647:	48 8d 45 d0          	lea    -0x30(%rbp),%rax
    364b:	48 89 c7             	mov    %rax,%rdi
    364e:	e8 a3 fe ff ff       	call   34f6 <_ZZN9__gnu_cxx6__stoaIlicJiEEET0_PFT_PKT1_PPS3_DpT2_EPKcS5_PmS9_EN11_Save_errnoD1Ev>
    3653:	89 d8                	mov    %ebx,%eax
    3655:	48 8b 55 e8          	mov    -0x18(%rbp),%rdx
    3659:	64 48 2b 14 25 28 00 	sub    %fs:0x28,%rdx
    3660:	00 00 
    3662:	74 39                	je     369d <_ZN9__gnu_cxx6__stoaIlicJiEEET0_PFT_PKT1_PPS3_DpT2_EPKcS5_PmS9_+0x147>
    3664:	eb 32                	jmp    3698 <_ZN9__gnu_cxx6__stoaIlicJiEEET0_PFT_PKT1_PPS3_DpT2_EPKcS5_PmS9_+0x142>
    3666:	f3 0f 1e fa          	endbr64
    366a:	48 89 c3             	mov    %rax,%rbx
    366d:	48 8d 45 d0          	lea    -0x30(%rbp),%rax
    3671:	48 89 c7             	mov    %rax,%rdi
    3674:	e8 7d fe ff ff       	call   34f6 <_ZZN9__gnu_cxx6__stoaIlicJiEEET0_PFT_PKT1_PPS3_DpT2_EPKcS5_PmS9_EN11_Save_errnoD1Ev>
    3679:	48 89 d8             	mov    %rbx,%rax
    367c:	48 8b 55 e8          	mov    -0x18(%rbp),%rdx
    3680:	64 48 2b 14 25 28 00 	sub    %fs:0x28,%rdx
    3687:	00 00 
    3689:	74 05                	je     3690 <_ZN9__gnu_cxx6__stoaIlicJiEEET0_PFT_PKT1_PPS3_DpT2_EPKcS5_PmS9_+0x13a>
    368b:	e8 00 ee ff ff       	call   2490 <__stack_chk_fail@plt>
    3690:	48 89 c7             	mov    %rax,%rdi
    3693:	e8 98 ee ff ff       	call   2530 <_Unwind_Resume@plt>
    3698:	e8 f3 ed ff ff       	call   2490 <__stack_chk_fail@plt>
    369d:	48 8b 5d f8          	mov    -0x8(%rbp),%rbx
    36a1:	c9                   	leave
    36a2:	c3                   	ret
    36a3:	90                   	nop

00000000000036a4 <_ZNSt7__cxx1112basic_stringIcSt11char_traitsIcESaIcEE12_Alloc_hiderD1Ev>:
    36a4:	f3 0f 1e fa          	endbr64
    36a8:	55                   	push   %rbp
    36a9:	48 89 e5             	mov    %rsp,%rbp
    36ac:	48 83 ec 20          	sub    $0x20,%rsp
    36b0:	48 89 7d e8          	mov    %rdi,-0x18(%rbp)
    36b4:	48 8b 45 e8          	mov    -0x18(%rbp),%rax
    36b8:	48 89 45 f8          	mov    %rax,-0x8(%rbp)
    36bc:	48 8b 45 f8          	mov    -0x8(%rbp),%rax
    36c0:	48 89 c7             	mov    %rax,%rdi
    36c3:	e8 b0 01 00 00       	call   3878 <_ZNSt15__new_allocatorIcED1Ev>
    36c8:	90                   	nop
    36c9:	90                   	nop
    36ca:	c9                   	leave
    36cb:	c3                   	ret

00000000000036cc <_ZSt3powIdiEN9__gnu_cxx11__promote_2IDTplcvNS1_IT_XsrSt12__is_integerIS2_E7__valueEE6__typeELi0EcvNS1_IT0_XsrS3_IS7_E7__valueEE6__typeELi0EEXsrS3_ISB_E7__valueEE6__typeES2_S7_>:
    36cc:	f3 0f 1e fa          	endbr64
    36d0:	55                   	push   %rbp
    36d1:	48 89 e5             	mov    %rsp,%rbp
    36d4:	48 83 ec 10          	sub    $0x10,%rsp
    36d8:	f2 0f 11 45 f8       	movsd  %xmm0,-0x8(%rbp)
    36dd:	89 7d f4             	mov    %edi,-0xc(%rbp)
    36e0:	66 0f ef c0          	pxor   %xmm0,%xmm0
    36e4:	f2 0f 2a 45 f4       	cvtsi2sdl -0xc(%rbp),%xmm0
    36e9:	48 8b 45 f8          	mov    -0x8(%rbp),%rax
    36ed:	66 0f 28 c8          	movapd %xmm0,%xmm1
    36f1:	66 48 0f 6e c0       	movq   %rax,%xmm0
    36f6:	e8 25 ee ff ff       	call   2520 <pow@plt>
    36fb:	c9                   	leave
    36fc:	c3                   	ret
    36fd:	90                   	nop

00000000000036fe <_ZNSt7__cxx1112basic_stringIcSt11char_traitsIcESaIcEEC1IS3_EEPKcRKS3_>:
    36fe:	f3 0f 1e fa          	endbr64
    3702:	55                   	push   %rbp
    3703:	48 89 e5             	mov    %rsp,%rbp
    3706:	53                   	push   %rbx
    3707:	48 83 ec 38          	sub    $0x38,%rsp
    370b:	48 89 7d d8          	mov    %rdi,-0x28(%rbp)
    370f:	48 89 75 d0          	mov    %rsi,-0x30(%rbp)
    3713:	48 89 55 c8          	mov    %rdx,-0x38(%rbp)
    3717:	48 8b 5d d8          	mov    -0x28(%rbp),%rbx
    371b:	48 8b 45 d8          	mov    -0x28(%rbp),%rax
    371f:	48 89 c7             	mov    %rax,%rdi
    3722:	e8 c9 ec ff ff       	call   23f0 <_ZNSt7__cxx1112basic_stringIcSt11char_traitsIcESaIcEE13_M_local_dataEv@plt>
    3727:	48 89 c1             	mov    %rax,%rcx
    372a:	48 8b 45 c8          	mov    -0x38(%rbp),%rax
    372e:	48 89 c2             	mov    %rax,%rdx
    3731:	48 89 ce             	mov    %rcx,%rsi
    3734:	48 89 df             	mov    %rbx,%rdi
    3737:	e8 24 ed ff ff       	call   2460 <_ZNSt7__cxx1112basic_stringIcSt11char_traitsIcESaIcEE12_Alloc_hiderC1EPcRKS3_@plt>
    373c:	48 83 7d d0 00       	cmpq   $0x0,-0x30(%rbp)
    3741:	75 0f                	jne    3752 <_ZNSt7__cxx1112basic_stringIcSt11char_traitsIcESaIcEEC1IS3_EEPKcRKS3_+0x54>
    3743:	48 8d 05 86 0a 00 00 	lea    0xa86(%rip),%rax        # 41d0 <_IO_stdin_used+0x1d0>
    374a:	48 89 c7             	mov    %rax,%rdi
    374d:	e8 8e ec ff ff       	call   23e0 <_ZSt19__throw_logic_errorPKc@plt>
    3752:	48 8b 45 d0          	mov    -0x30(%rbp),%rax
    3756:	48 89 c7             	mov    %rax,%rdi
    3759:	e8 22 fa ff ff       	call   3180 <_ZNSt11char_traitsIcE6lengthEPKc>
    375e:	48 8b 55 d0          	mov    -0x30(%rbp),%rdx
    3762:	48 01 d0             	add    %rdx,%rax
    3765:	48 89 45 e8          	mov    %rax,-0x18(%rbp)
    3769:	48 8b 55 e8          	mov    -0x18(%rbp),%rdx
    376d:	48 8b 4d d0          	mov    -0x30(%rbp),%rcx
    3771:	48 8b 45 d8          	mov    -0x28(%rbp),%rax
    3775:	48 89 ce             	mov    %rcx,%rsi
    3778:	48 89 c7             	mov    %rax,%rdi
    377b:	e8 54 01 00 00       	call   38d4 <_ZNSt7__cxx1112basic_stringIcSt11char_traitsIcESaIcEE12_M_constructIPKcEEvT_S8_St20forward_iterator_tag>
    3780:	eb 1e                	jmp    37a0 <_ZNSt7__cxx1112basic_stringIcSt11char_traitsIcESaIcEEC1IS3_EEPKcRKS3_+0xa2>
    3782:	f3 0f 1e fa          	endbr64
    3786:	48 89 c3             	mov    %rax,%rbx
    3789:	48 8b 45 d8          	mov    -0x28(%rbp),%rax
    378d:	48 89 c7             	mov    %rax,%rdi
    3790:	e8 0f ff ff ff       	call   36a4 <_ZNSt7__cxx1112basic_stringIcSt11char_traitsIcESaIcEE12_Alloc_hiderD1Ev>
    3795:	48 89 d8             	mov    %rbx,%rax
    3798:	48 89 c7             	mov    %rax,%rdi
    379b:	e8 90 ed ff ff       	call   2530 <_Unwind_Resume@plt>
    37a0:	48 8b 5d f8          	mov    -0x8(%rbp),%rbx
    37a4:	c9                   	leave
    37a5:	c3                   	ret

00000000000037a6 <_ZStneIcSt11char_traitsIcESaIcEEbRKNSt7__cxx1112basic_stringIT_T0_T1_EESA_>:
    37a6:	f3 0f 1e fa          	endbr64
    37aa:	55                   	push   %rbp
    37ab:	48 89 e5             	mov    %rsp,%rbp
    37ae:	48 83 ec 10          	sub    $0x10,%rsp
    37b2:	48 89 7d f8          	mov    %rdi,-0x8(%rbp)
    37b6:	48 89 75 f0          	mov    %rsi,-0x10(%rbp)
    37ba:	48 8b 55 f0          	mov    -0x10(%rbp),%rdx
    37be:	48 8b 45 f8          	mov    -0x8(%rbp),%rax
    37c2:	48 89 d6             	mov    %rdx,%rsi
    37c5:	48 89 c7             	mov    %rax,%rdi
    37c8:	e8 20 02 00 00       	call   39ed <_ZSteqIcSt11char_traitsIcESaIcEEbRKNSt7__cxx1112basic_stringIT_T0_T1_EESA_>
    37cd:	83 f0 01             	xor    $0x1,%eax
    37d0:	c9                   	leave
    37d1:	c3                   	ret

00000000000037d2 <_ZNSt6chrono20__duration_cast_implINS_8durationIlSt5ratioILl1ELl1EEEES2_ILl1ELl1000000000EElLb1ELb0EE6__castIlS5_EES4_RKNS1_IT_T0_EE>:
    37d2:	f3 0f 1e fa          	endbr64
    37d6:	55                   	push   %rbp
    37d7:	48 89 e5             	mov    %rsp,%rbp
    37da:	48 83 ec 30          	sub    $0x30,%rsp
    37de:	48 89 7d d8          	mov    %rdi,-0x28(%rbp)
    37e2:	64 48 8b 04 25 28 00 	mov    %fs:0x28,%rax
    37e9:	00 00 
    37eb:	48 89 45 f8          	mov    %rax,-0x8(%rbp)
    37ef:	31 c0                	xor    %eax,%eax
    37f1:	48 8b 45 d8          	mov    -0x28(%rbp),%rax
    37f5:	48 89 c7             	mov    %rax,%rdi
    37f8:	e8 01 f8 ff ff       	call   2ffe <_ZNKSt6chrono8durationIlSt5ratioILl1ELl1000000000EEE5countEv>
    37fd:	48 89 c1             	mov    %rax,%rcx
    3800:	48 ba b3 94 d6 26 e8 	movabs $0x112e0be826d694b3,%rdx
    3807:	0b 2e 11 
    380a:	48 89 c8             	mov    %rcx,%rax
    380d:	48 f7 ea             	imul   %rdx
    3810:	48 89 d0             	mov    %rdx,%rax
    3813:	48 c1 f8 1a          	sar    $0x1a,%rax
    3817:	48 c1 f9 3f          	sar    $0x3f,%rcx
    381b:	48 89 ca             	mov    %rcx,%rdx
    381e:	48 29 d0             	sub    %rdx,%rax
    3821:	48 89 45 e8          	mov    %rax,-0x18(%rbp)
    3825:	48 8d 55 e8          	lea    -0x18(%rbp),%rdx
    3829:	48 8d 45 f0          	lea    -0x10(%rbp),%rax
    382d:	48 89 d6             	mov    %rdx,%rsi
    3830:	48 89 c7             	mov    %rax,%rdi
    3833:	e8 3c f8 ff ff       	call   3074 <_ZNSt6chrono8durationIlSt5ratioILl1ELl1EEEC1IlvEERKT_>
    3838:	48 8b 45 f0          	mov    -0x10(%rbp),%rax
    383c:	48 8b 55 f8          	mov    -0x8(%rbp),%rdx
    3840:	64 48 2b 14 25 28 00 	sub    %fs:0x28,%rdx
    3847:	00 00 
    3849:	74 05                	je     3850 <_ZNSt6chrono20__duration_cast_implINS_8durationIlSt5ratioILl1ELl1EEEES2_ILl1ELl1000000000EElLb1ELb0EE6__castIlS5_EES4_RKNS1_IT_T0_EE+0x7e>
    384b:	e8 40 ec ff ff       	call   2490 <__stack_chk_fail@plt>
    3850:	c9                   	leave
    3851:	c3                   	ret

0000000000003852 <_ZN9__gnu_cxx11char_traitsIcE2eqERKcS3_>:
    3852:	f3 0f 1e fa          	endbr64
    3856:	55                   	push   %rbp
    3857:	48 89 e5             	mov    %rsp,%rbp
    385a:	48 89 7d f8          	mov    %rdi,-0x8(%rbp)
    385e:	48 89 75 f0          	mov    %rsi,-0x10(%rbp)
    3862:	48 8b 45 f8          	mov    -0x8(%rbp),%rax
    3866:	0f b6 10             	movzbl (%rax),%edx
    3869:	48 8b 45 f0          	mov    -0x10(%rbp),%rax
    386d:	0f b6 00             	movzbl (%rax),%eax
    3870:	38 c2                	cmp    %al,%dl
    3872:	0f 94 c0             	sete   %al
    3875:	5d                   	pop    %rbp
    3876:	c3                   	ret
    3877:	90                   	nop

0000000000003878 <_ZNSt15__new_allocatorIcED1Ev>:
    3878:	f3 0f 1e fa          	endbr64
    387c:	55                   	push   %rbp
    387d:	48 89 e5             	mov    %rsp,%rbp
    3880:	48 89 7d f8          	mov    %rdi,-0x8(%rbp)
    3884:	90                   	nop
    3885:	5d                   	pop    %rbp
    3886:	c3                   	ret
    3887:	90                   	nop

0000000000003888 <_ZZNSt7__cxx1112basic_stringIcSt11char_traitsIcESaIcEE12_M_constructIPKcEEvT_S8_St20forward_iterator_tagEN6_GuardC1EPS4_>:
    3888:	f3 0f 1e fa          	endbr64
    388c:	55                   	push   %rbp
    388d:	48 89 e5             	mov    %rsp,%rbp
    3890:	48 89 7d f8          	mov    %rdi,-0x8(%rbp)
    3894:	48 89 75 f0          	mov    %rsi,-0x10(%rbp)
    3898:	48 8b 45 f8          	mov    -0x8(%rbp),%rax
    389c:	48 8b 55 f0          	mov    -0x10(%rbp),%rdx
    38a0:	48 89 10             	mov    %rdx,(%rax)
    38a3:	90                   	nop
    38a4:	5d                   	pop    %rbp
    38a5:	c3                   	ret

00000000000038a6 <_ZZNSt7__cxx1112basic_stringIcSt11char_traitsIcESaIcEE12_M_constructIPKcEEvT_S8_St20forward_iterator_tagEN6_GuardD1Ev>:
    38a6:	f3 0f 1e fa          	endbr64
    38aa:	55                   	push   %rbp
    38ab:	48 89 e5             	mov    %rsp,%rbp
    38ae:	48 83 ec 10          	sub    $0x10,%rsp
    38b2:	48 89 7d f8          	mov    %rdi,-0x8(%rbp)
    38b6:	48 8b 45 f8          	mov    -0x8(%rbp),%rax
    38ba:	48 8b 00             	mov    (%rax),%rax
    38bd:	48 85 c0             	test   %rax,%rax
    38c0:	74 0f                	je     38d1 <_ZZNSt7__cxx1112basic_stringIcSt11char_traitsIcESaIcEE12_M_constructIPKcEEvT_S8_St20forward_iterator_tagEN6_GuardD1Ev+0x2b>
    38c2:	48 8b 45 f8          	mov    -0x8(%rbp),%rax
    38c6:	48 8b 00             	mov    (%rax),%rax
    38c9:	48 89 c7             	mov    %rax,%rdi
    38cc:	e8 cf eb ff ff       	call   24a0 <_ZNSt7__cxx1112basic_stringIcSt11char_traitsIcESaIcEE10_M_disposeEv@plt>
    38d1:	90                   	nop
    38d2:	c9                   	leave
    38d3:	c3                   	ret

00000000000038d4 <_ZNSt7__cxx1112basic_stringIcSt11char_traitsIcESaIcEE12_M_constructIPKcEEvT_S8_St20forward_iterator_tag>:
    38d4:	f3 0f 1e fa          	endbr64
    38d8:	55                   	push   %rbp
    38d9:	48 89 e5             	mov    %rsp,%rbp
    38dc:	48 83 ec 60          	sub    $0x60,%rsp
    38e0:	48 89 7d b8          	mov    %rdi,-0x48(%rbp)
    38e4:	48 89 75 b0          	mov    %rsi,-0x50(%rbp)
    38e8:	48 89 55 a8          	mov    %rdx,-0x58(%rbp)
    38ec:	64 48 8b 04 25 28 00 	mov    %fs:0x28,%rax
    38f3:	00 00 
    38f5:	48 89 45 f8          	mov    %rax,-0x8(%rbp)
    38f9:	31 c0                	xor    %eax,%eax
    38fb:	48 8b 45 b0          	mov    -0x50(%rbp),%rax
    38ff:	48 89 45 d0          	mov    %rax,-0x30(%rbp)
    3903:	48 8b 45 a8          	mov    -0x58(%rbp),%rax
    3907:	48 89 45 d8          	mov    %rax,-0x28(%rbp)
    390b:	90                   	nop
    390c:	48 8b 45 d0          	mov    -0x30(%rbp),%rax
    3910:	48 89 45 e0          	mov    %rax,-0x20(%rbp)
    3914:	48 8b 45 d8          	mov    -0x28(%rbp),%rax
    3918:	48 89 45 e8          	mov    %rax,-0x18(%rbp)
    391c:	48 8b 45 e8          	mov    -0x18(%rbp),%rax
    3920:	48 2b 45 e0          	sub    -0x20(%rbp),%rax
    3924:	90                   	nop
    3925:	48 89 45 c8          	mov    %rax,-0x38(%rbp)
    3929:	48 8b 45 c8          	mov    -0x38(%rbp),%rax
    392d:	48 83 f8 0f          	cmp    $0xf,%rax
    3931:	76 3f                	jbe    3972 <_ZNSt7__cxx1112basic_stringIcSt11char_traitsIcESaIcEE12_M_constructIPKcEEvT_S8_St20forward_iterator_tag+0x9e>
    3933:	48 8d 4d c8          	lea    -0x38(%rbp),%rcx
    3937:	48 8b 45 b8          	mov    -0x48(%rbp),%rax
    393b:	ba 00 00 00 00       	mov    $0x0,%edx
    3940:	48 89 ce             	mov    %rcx,%rsi
    3943:	48 89 c7             	mov    %rax,%rdi
    3946:	e8 05 ec ff ff       	call   2550 <_ZNSt7__cxx1112basic_stringIcSt11char_traitsIcESaIcEE9_M_createERmm@plt>
    394b:	48 89 c2             	mov    %rax,%rdx
    394e:	48 8b 45 b8          	mov    -0x48(%rbp),%rax
    3952:	48 89 d6             	mov    %rdx,%rsi
    3955:	48 89 c7             	mov    %rax,%rdi
    3958:	e8 b3 ea ff ff       	call   2410 <_ZNSt7__cxx1112basic_stringIcSt11char_traitsIcESaIcEE7_M_dataEPc@plt>
    395d:	48 8b 55 c8          	mov    -0x38(%rbp),%rdx
    3961:	48 8b 45 b8          	mov    -0x48(%rbp),%rax
    3965:	48 89 d6             	mov    %rdx,%rsi
    3968:	48 89 c7             	mov    %rax,%rdi
    396b:	e8 20 ec ff ff       	call   2590 <_ZNSt7__cxx1112basic_stringIcSt11char_traitsIcESaIcEE11_M_capacityEm@plt>
    3970:	eb 09                	jmp    397b <_ZNSt7__cxx1112basic_stringIcSt11char_traitsIcESaIcEE12_M_constructIPKcEEvT_S8_St20forward_iterator_tag+0xa7>
    3972:	48 8b 45 b8          	mov    -0x48(%rbp),%rax
    3976:	48 89 45 f0          	mov    %rax,-0x10(%rbp)
    397a:	90                   	nop
    397b:	48 8b 55 b8          	mov    -0x48(%rbp),%rdx
    397f:	48 8d 45 d0          	lea    -0x30(%rbp),%rax
    3983:	48 89 d6             	mov    %rdx,%rsi
    3986:	48 89 c7             	mov    %rax,%rdi
    3989:	e8 fa fe ff ff       	call   3888 <_ZZNSt7__cxx1112basic_stringIcSt11char_traitsIcESaIcEE12_M_constructIPKcEEvT_S8_St20forward_iterator_tagEN6_GuardC1EPS4_>
    398e:	48 8b 45 b8          	mov    -0x48(%rbp),%rax
    3992:	48 89 c7             	mov    %rax,%rdi
    3995:	e8 d6 ea ff ff       	call   2470 <_ZNKSt7__cxx1112basic_stringIcSt11char_traitsIcESaIcEE7_M_dataEv@plt>
    399a:	48 89 c1             	mov    %rax,%rcx
    399d:	48 8b 55 a8          	mov    -0x58(%rbp),%rdx
    39a1:	48 8b 45 b0          	mov    -0x50(%rbp),%rax
    39a5:	48 89 c6             	mov    %rax,%rsi
    39a8:	48 89 cf             	mov    %rcx,%rdi
    39ab:	e8 d0 ea ff ff       	call   2480 <_ZNSt7__cxx1112basic_stringIcSt11char_traitsIcESaIcEE13_S_copy_charsEPcPKcS7_@plt>
    39b0:	48 c7 45 d0 00 00 00 	movq   $0x0,-0x30(%rbp)
    39b7:	00 
    39b8:	48 8b 55 c8          	mov    -0x38(%rbp),%rdx
    39bc:	48 8b 45 b8          	mov    -0x48(%rbp),%rax
    39c0:	48 89 d6             	mov    %rdx,%rsi
    39c3:	48 89 c7             	mov    %rax,%rdi
    39c6:	e8 f5 e9 ff ff       	call   23c0 <_ZNSt7__cxx1112basic_stringIcSt11char_traitsIcESaIcEE13_M_set_lengthEm@plt>
    39cb:	48 8d 45 d0          	lea    -0x30(%rbp),%rax
    39cf:	48 89 c7             	mov    %rax,%rdi
    39d2:	e8 cf fe ff ff       	call   38a6 <_ZZNSt7__cxx1112basic_stringIcSt11char_traitsIcESaIcEE12_M_constructIPKcEEvT_S8_St20forward_iterator_tagEN6_GuardD1Ev>
    39d7:	48 8b 45 f8          	mov    -0x8(%rbp),%rax
    39db:	64 48 2b 04 25 28 00 	sub    %fs:0x28,%rax
    39e2:	00 00 
    39e4:	74 05                	je     39eb <_ZNSt7__cxx1112basic_stringIcSt11char_traitsIcESaIcEE12_M_constructIPKcEEvT_S8_St20forward_iterator_tag+0x117>
    39e6:	e8 a5 ea ff ff       	call   2490 <__stack_chk_fail@plt>
    39eb:	c9                   	leave
    39ec:	c3                   	ret

00000000000039ed <_ZSteqIcSt11char_traitsIcESaIcEEbRKNSt7__cxx1112basic_stringIT_T0_T1_EESA_>:
    39ed:	f3 0f 1e fa          	endbr64
    39f1:	55                   	push   %rbp
    39f2:	48 89 e5             	mov    %rsp,%rbp
    39f5:	41 54                	push   %r12
    39f7:	53                   	push   %rbx
    39f8:	48 83 ec 10          	sub    $0x10,%rsp
    39fc:	48 89 7d e8          	mov    %rdi,-0x18(%rbp)
    3a00:	48 89 75 e0          	mov    %rsi,-0x20(%rbp)
    3a04:	48 8b 45 e8          	mov    -0x18(%rbp),%rax
    3a08:	48 89 c7             	mov    %rax,%rdi
    3a0b:	e8 c0 e9 ff ff       	call   23d0 <_ZNKSt7__cxx1112basic_stringIcSt11char_traitsIcESaIcEE4sizeEv@plt>
    3a10:	48 89 c3             	mov    %rax,%rbx
    3a13:	48 8b 45 e0          	mov    -0x20(%rbp),%rax
    3a17:	48 89 c7             	mov    %rax,%rdi
    3a1a:	e8 b1 e9 ff ff       	call   23d0 <_ZNKSt7__cxx1112basic_stringIcSt11char_traitsIcESaIcEE4sizeEv@plt>
    3a1f:	48 39 c3             	cmp    %rax,%rbx
    3a22:	75 43                	jne    3a67 <_ZSteqIcSt11char_traitsIcESaIcEEbRKNSt7__cxx1112basic_stringIT_T0_T1_EESA_+0x7a>
    3a24:	48 8b 45 e8          	mov    -0x18(%rbp),%rax
    3a28:	48 89 c7             	mov    %rax,%rdi
    3a2b:	e8 a0 e9 ff ff       	call   23d0 <_ZNKSt7__cxx1112basic_stringIcSt11char_traitsIcESaIcEE4sizeEv@plt>
    3a30:	49 89 c4             	mov    %rax,%r12
    3a33:	48 8b 45 e0          	mov    -0x20(%rbp),%rax
    3a37:	48 89 c7             	mov    %rax,%rdi
    3a3a:	e8 81 ea ff ff       	call   24c0 <_ZNKSt7__cxx1112basic_stringIcSt11char_traitsIcESaIcEE4dataEv@plt>
    3a3f:	48 89 c3             	mov    %rax,%rbx
    3a42:	48 8b 45 e8          	mov    -0x18(%rbp),%rax
    3a46:	48 89 c7             	mov    %rax,%rdi
    3a49:	e8 72 ea ff ff       	call   24c0 <_ZNKSt7__cxx1112basic_stringIcSt11char_traitsIcESaIcEE4dataEv@plt>
    3a4e:	4c 89 e2             	mov    %r12,%rdx
    3a51:	48 89 de             	mov    %rbx,%rsi
    3a54:	48 89 c7             	mov    %rax,%rdi
    3a57:	e8 60 f6 ff ff       	call   30bc <_ZNSt11char_traitsIcE7compareEPKcS2_m>
    3a5c:	85 c0                	test   %eax,%eax
    3a5e:	75 07                	jne    3a67 <_ZSteqIcSt11char_traitsIcESaIcEEbRKNSt7__cxx1112basic_stringIT_T0_T1_EESA_+0x7a>
    3a60:	b8 01 00 00 00       	mov    $0x1,%eax
    3a65:	eb 05                	jmp    3a6c <_ZSteqIcSt11char_traitsIcESaIcEEbRKNSt7__cxx1112basic_stringIT_T0_T1_EESA_+0x7f>
    3a67:	b8 00 00 00 00       	mov    $0x0,%eax
    3a6c:	48 83 c4 10          	add    $0x10,%rsp
    3a70:	5b                   	pop    %rbx
    3a71:	41 5c                	pop    %r12
    3a73:	5d                   	pop    %rbp
    3a74:	c3                   	ret

Disassembly of section .fini:

0000000000003a78 <_fini>:
    3a78:	f3 0f 1e fa          	endbr64
    3a7c:	48 83 ec 08          	sub    $0x8,%rsp
    3a80:	48 83 c4 08          	add    $0x8,%rsp
    3a84:	c3                   	ret
